

Microchip MPLAB XC8 Assembler V2.46 build 20240104201356 
                                                                                               Fri May 24 08:48:03 2024

Microchip MPLAB XC8 C Compiler v2.46 (Free license) build 20240104201356 Og1 
     1                           	processor	16F877A
     2                           	pagewidth 120
     3                           	opt	flic
     4                           	psect	strings,global,class=STRING,delta=2,noexec
     5                           	psect	cinit,global,class=CODE,merge=1,delta=2
     6                           	psect	bssCOMMON,global,class=COMMON,space=1,delta=1,noexec
     7                           	psect	bssBANK3,global,class=BANK3,space=1,delta=1,noexec
     8                           	psect	bssBANK2,global,class=BANK2,space=1,delta=1,noexec
     9                           	psect	clrtext,global,class=CODE,delta=2
    10                           	psect	cstackBANK3,global,class=BANK3,space=1,delta=1,noexec
    11                           	psect	cstackBANK1,global,class=BANK1,space=1,delta=1,noexec
    12                           	psect	cstackCOMMON,global,class=COMMON,space=1,delta=1,noexec
    13                           	psect	cstackBANK0,global,class=BANK0,space=1,delta=1,noexec
    14                           	psect	maintext,global,class=CODE,split=1,delta=2
    15                           	psect	text1,local,class=CODE,merge=1,delta=2,group=3
    16                           	psect	text2,local,class=CODE,merge=1,delta=2,group=1
    17                           	psect	text3,local,class=CODE,merge=1,delta=2,group=1
    18                           	psect	text4,local,class=CODE,merge=1,delta=2,group=1
    19                           	psect	text5,local,class=CODE,merge=1,delta=2,group=2
    20                           	psect	text6,local,class=CODE,merge=1,delta=2,group=1
    21                           	psect	text7,local,class=CODE,merge=1,delta=2,group=3
    22                           	psect	text8,local,class=CODE,merge=1,delta=2,group=1
    23                           	psect	text9,local,class=CODE,merge=1,delta=2,group=3
    24                           	psect	text10,local,class=CODE,merge=1,delta=2,group=3
    25                           	psect	text11,local,class=CODE,merge=1,delta=2,group=3
    26                           	psect	text12,local,class=CODE,merge=1,delta=2,group=3
    27                           	psect	text13,local,class=CODE,merge=1,delta=2,group=3
    28                           	psect	text14,local,class=CODE,merge=1,delta=2,group=3
    29                           	psect	text15,local,class=CODE,merge=1,delta=2,group=3
    30                           	psect	text16,local,class=CODE,merge=1,delta=2,group=2
    31                           	psect	text17,local,class=CODE,merge=1,delta=2,group=2
    32                           	psect	text18,local,class=CODE,merge=1,delta=2,group=2
    33                           	psect	text19,local,class=CODE,merge=1,delta=2,group=2
    34                           	psect	text20,local,class=CODE,merge=1,delta=2,group=2
    35                           	psect	text21,local,class=CODE,merge=1,delta=2,group=2
    36                           	psect	text22,local,class=CODE,merge=1,delta=2,group=2
    37                           	psect	text23,local,class=CODE,merge=1,delta=2,group=2
    38                           	psect	text24,local,class=CODE,merge=1,delta=2,group=2
    39                           	psect	text25,local,class=CODE,merge=1,delta=2
    40                           	psect	text26,local,class=CODE,merge=1,delta=2,group=2
    41                           	psect	text27,local,class=CODE,merge=1,delta=2
    42                           	psect	text28,local,class=CODE,merge=1,delta=2
    43                           	psect	intentry,global,class=CODE,delta=2
    44                           	psect	text29,local,class=CODE,merge=1,delta=2
    45                           	psect	config,global,abs,ovrld,class=CONFIG,space=4,delta=2,noexec
    46                           	psect	text6_split_1,local,class=CODE,merge=1,delta=2
    47                           	psect	text6_split_2,local,class=CODE,merge=1,delta=2
    48                           	dabs	1,0x7E,2
    49     0000                     
    50                           ; Generated 12/10/2023 GMT
    51                           ; 
    52                           ; Copyright © 2023, Microchip Technology Inc. and its subsidiaries ("Microchip")
    53                           ; All rights reserved.
    54                           ; 
    55                           ; This software is developed by Microchip Technology Inc. and its subsidiaries ("Microch
      +                          ip").
    56                           ; 
    57                           ; Redistribution and use in source and binary forms, with or without modification, are
    58                           ; permitted provided that the following conditions are met:
    59                           ; 
    60                           ;     1. Redistributions of source code must retain the above copyright notice, this lis
      +                          t of
    61                           ;        conditions and the following disclaimer.
    62                           ; 
    63                           ;     2. Redistributions in binary form must reproduce the above copyright notice, this 
      +                          list
    64                           ;        of conditions and the following disclaimer in the documentation and/or other
    65                           ;        materials provided with the distribution. Publication is not required when
    66                           ;        this file is used in an embedded application.
    67                           ; 
    68                           ;     3. Microchip's name may not be used to endorse or promote products derived from th
      +                          is
    69                           ;        software without specific prior written permission.
    70                           ; 
    71                           ; THIS SOFTWARE IS PROVIDED BY MICROCHIP "AS IS" AND ANY EXPRESS OR IMPLIED WARRANTIES,
    72                           ; INCLUDING, BUT NOT LIMITED TO, THE IMPLIED WARRANTIES OF MERCHANTABILITY AND FITNESS F
      +                          OR
    73                           ; PURPOSE ARE DISCLAIMED.  IN NO EVENT SHALL MICROCHIP BE LIABLE FOR ANY DIRECT, INDIREC
      +                          T,
    74                           ; INCIDENTAL, SPECIAL, EXEMPLARY, OR CONSEQUENTIAL DAMAGES (INCLUDING BUT NOT LIMITED TO
    75                           ; PROCUREMENT OF SUBSTITUTE GOODS OR SERVICES; LOSS OF USE, DATA OR PROFITS; OR BUSINESS
    76                           ; INTERRUPTION) HOWSOEVER CAUSED AND ON ANY THEORY OF LIABILITY, WHETHER IN CONTRACT, ST
      +                          RICT
    77                           ; LIABILITY, OR TORT (INCLUDING NEGLIGENCE OR OTHERWISE) ARISING IN ANY WAY OUT OF THE U
      +                          SE OF
    78                           ; THIS SOFTWARE, EVEN IF ADVISED OF THE POSSIBILITY OF SUCH DAMAGE.
    79                           ; 
    80                           ; 
    81                           ; Code-generator required, PIC16F877A Definitions
    82                           ; 
    83                           ; SFR Addresses
    84     0000                     	;# 
    85     0001                     	;# 
    86     0002                     	;# 
    87     0003                     	;# 
    88     0004                     	;# 
    89     0005                     	;# 
    90     0006                     	;# 
    91     0007                     	;# 
    92     0008                     	;# 
    93     0009                     	;# 
    94     000A                     	;# 
    95     000B                     	;# 
    96     000C                     	;# 
    97     000D                     	;# 
    98     000E                     	;# 
    99     000E                     	;# 
   100     000F                     	;# 
   101     0010                     	;# 
   102     0011                     	;# 
   103     0012                     	;# 
   104     0013                     	;# 
   105     0014                     	;# 
   106     0015                     	;# 
   107     0015                     	;# 
   108     0016                     	;# 
   109     0017                     	;# 
   110     0018                     	;# 
   111     0019                     	;# 
   112     001A                     	;# 
   113     001B                     	;# 
   114     001B                     	;# 
   115     001C                     	;# 
   116     001D                     	;# 
   117     001E                     	;# 
   118     001F                     	;# 
   119     0081                     	;# 
   120     0085                     	;# 
   121     0086                     	;# 
   122     0087                     	;# 
   123     0088                     	;# 
   124     0089                     	;# 
   125     008C                     	;# 
   126     008D                     	;# 
   127     008E                     	;# 
   128     0091                     	;# 
   129     0092                     	;# 
   130     0093                     	;# 
   131     0094                     	;# 
   132     0098                     	;# 
   133     0099                     	;# 
   134     009C                     	;# 
   135     009D                     	;# 
   136     009E                     	;# 
   137     009F                     	;# 
   138     010C                     	;# 
   139     010D                     	;# 
   140     010E                     	;# 
   141     010F                     	;# 
   142     018C                     	;# 
   143     018D                     	;# 
   144     0000                     	;# 
   145     0001                     	;# 
   146     0002                     	;# 
   147     0003                     	;# 
   148     0004                     	;# 
   149     0005                     	;# 
   150     0006                     	;# 
   151     0007                     	;# 
   152     0008                     	;# 
   153     0009                     	;# 
   154     000A                     	;# 
   155     000B                     	;# 
   156     000C                     	;# 
   157     000D                     	;# 
   158     000E                     	;# 
   159     000E                     	;# 
   160     000F                     	;# 
   161     0010                     	;# 
   162     0011                     	;# 
   163     0012                     	;# 
   164     0013                     	;# 
   165     0014                     	;# 
   166     0015                     	;# 
   167     0015                     	;# 
   168     0016                     	;# 
   169     0017                     	;# 
   170     0018                     	;# 
   171     0019                     	;# 
   172     001A                     	;# 
   173     001B                     	;# 
   174     001B                     	;# 
   175     001C                     	;# 
   176     001D                     	;# 
   177     001E                     	;# 
   178     001F                     	;# 
   179     0081                     	;# 
   180     0085                     	;# 
   181     0086                     	;# 
   182     0087                     	;# 
   183     0088                     	;# 
   184     0089                     	;# 
   185     008C                     	;# 
   186     008D                     	;# 
   187     008E                     	;# 
   188     0091                     	;# 
   189     0092                     	;# 
   190     0093                     	;# 
   191     0094                     	;# 
   192     0098                     	;# 
   193     0099                     	;# 
   194     009C                     	;# 
   195     009D                     	;# 
   196     009E                     	;# 
   197     009F                     	;# 
   198     010C                     	;# 
   199     010D                     	;# 
   200     010E                     	;# 
   201     010F                     	;# 
   202     018C                     	;# 
   203     018D                     	;# 
   204     0008                     _PORTDbits	set	8
   205     0019                     _TXREG	set	25
   206     000B                     _INTCONbits	set	11
   207     0018                     _RCSTAbits	set	24
   208     001F                     _ADCON0	set	31
   209     001E                     _ADRESH	set	30
   210     001F                     _ADCON0bits	set	31
   211     0008                     _PORTD	set	8
   212     0081                     _OPTION_REGbits	set	129
   213     0099                     _SPBRG	set	153
   214     0098                     _TXSTAbits	set	152
   215     009F                     _ADCON1	set	159
   216     0086                     _TRISB	set	134
   217     0085                     _TRISA	set	133
   218     0088                     _TRISD	set	136
   219     009E                     _ADRESL	set	158
   220                           
   221                           	psect	strings
   222     1800                     __pstrings:
   223     1800                     stringtab:
   224     1800                     __stringtab:
   225                           
   226                           ;	String table - string pointers are 1 byte each
   227     1800  1BFF               	btfsc	btemp+1,7
   228     1801  280A               	ljmp	stringcode
   229     1802  1383               	bcf	3,7
   230     1803  187F               	btfsc	btemp+1,0
   231     1804  1783               	bsf	3,7
   232     1805  0800               	movf	0,w
   233     1806  0A84               	incf	4,f
   234     1807  1903               	skipnz
   235     1808  0AFF               	incf	btemp+1,f
   236     1809  0008               	return
   237     180A                     stringcode:
   238     180A                     stringdir:
   239     180A  3018               	movlw	high stringdir
   240     180B  008A               	movwf	10
   241     180C  0804               	movf	4,w
   242     180D  0A84               	incf	4,f
   243     180E  0782               	addwf	2,f
   244     180F                     __stringbase:
   245     180F  3400               	retlw	0
   246     1810                     __end_of__stringtab:
   247     1810                     STR_2:
   248     1810  3449               	retlw	73	;'I'
   249     1811  346E               	retlw	110	;'n'
   250     1812  3474               	retlw	116	;'t'
   251     1813  3465               	retlw	101	;'e'
   252     1814  3472               	retlw	114	;'r'
   253     1815  3472               	retlw	114	;'r'
   254     1816  3475               	retlw	117	;'u'
   255     1817  3470               	retlw	112	;'p'
   256     1818  3474               	retlw	116	;'t'
   257     1819  3420               	retlw	32	;' '
   258     181A  3465               	retlw	101	;'e'
   259     181B  3478               	retlw	120	;'x'
   260     181C  3465               	retlw	101	;'e'
   261     181D  3463               	retlw	99	;'c'
   262     181E  3475               	retlw	117	;'u'
   263     181F  3474               	retlw	116	;'t'
   264     1820  3465               	retlw	101	;'e'
   265     1821  3464               	retlw	100	;'d'
   266     1822  340D               	retlw	13
   267     1823  340A               	retlw	10
   268     1824  3400               	retlw	0
   269     1825                     STR_1:
   270     1825  3456               	retlw	86	;'V'
   271     1826  346F               	retlw	111	;'o'
   272     1827  346C               	retlw	108	;'l'
   273     1828  3474               	retlw	116	;'t'
   274     1829  3461               	retlw	97	;'a'
   275     182A  3467               	retlw	103	;'g'
   276     182B  3465               	retlw	101	;'e'
   277     182C  343A               	retlw	58	;':'
   278     182D  3420               	retlw	32	;' '
   279     182E  3425               	retlw	37	;'%'
   280     182F  342E               	retlw	46	;'.'
   281     1830  3432               	retlw	50	;'2'
   282     1831  3466               	retlw	102	;'f'
   283     1832  3420               	retlw	32	;' '
   284     1833  3456               	retlw	86	;'V'
   285     1834  340D               	retlw	13
   286     1835  340A               	retlw	10
   287     1836  3400               	retlw	0
   288     1837                     STR_3:
   289     1837  3469               	retlw	105	;'i'
   290     1838  346E               	retlw	110	;'n'
   291     1839  3466               	retlw	102	;'f'
   292     183A  3400               	retlw	0
   293     183B                     STR_6:
   294     183B  346E               	retlw	110	;'n'
   295     183C  3461               	retlw	97	;'a'
   296     183D  346E               	retlw	110	;'n'
   297     183E  3400               	retlw	0
   298     1837                     
   299                           	psect	cinit
   300     0013                     start_initialization:	
   301                           ; #config settings
   302                           
   303     0013                     __initialization:
   304                           
   305                           ; Clear objects allocated to COMMON
   306     0013  01F9               	clrf	__pbssCOMMON& (0+127)
   307     0014  01FA               	clrf	(__pbssCOMMON+1)& (0+127)
   308     0015  01FB               	clrf	(__pbssCOMMON+2)& (0+127)
   309     0016  01FC               	clrf	(__pbssCOMMON+3)& (0+127)
   310     0017  01FD               	clrf	(__pbssCOMMON+4)& (0+127)
   311                           
   312                           ; Clear objects allocated to BANK3
   313     0018  1783               	bsf	3,7	;select IRP bank2
   314     0019  30C7               	movlw	low __pbssBANK3
   315     001A  0084               	movwf	4
   316     001B  30CF               	movlw	low (__pbssBANK3+8)
   317     001C  120A  118A  27F8  120A  118A  	fcall	clear_ram0
   318                           
   319                           ; Clear objects allocated to BANK2
   320     0021  3010               	movlw	low __pbssBANK2
   321     0022  0084               	movwf	4
   322     0023  3060               	movlw	low (__pbssBANK2+80)
   323     0024  120A  118A  27F8  120A  118A  	fcall	clear_ram0
   324     0029                     end_of_initialization:	
   325                           ;End of C runtime variable initialization code
   326                           
   327     0029                     __end_of__initialization:
   328     0029  0183               	clrf	3
   329     002A  160A  118A  2A82   	ljmp	_main	;jump to C main() function
   330                           
   331                           	psect	bssCOMMON
   332     0079                     __pbssCOMMON:
   333     0079                     _width:
   334     0079                     	ds	2
   335     007B                     _prec:
   336     007B                     	ds	2
   337     007D                     _flags:
   338     007D                     	ds	1
   339                           
   340                           	psect	bssBANK3
   341     01C7                     __pbssBANK3:
   342     01C7                     floorf@F521:
   343     01C7                     	ds	4
   344     01CB                     ___fpclassifyf@F465:
   345     01CB                     	ds	4
   346                           
   347                           	psect	bssBANK2
   348     0110                     __pbssBANK2:
   349     0110                     _dbuf:
   350     0110                     	ds	80
   351                           
   352                           	psect	clrtext
   353     07F8                     clear_ram0:	
   354                           ;	Called with FSR containing the base address, and
   355                           ;	W with the last address+1
   356                           
   357     07F8  0064               	clrwdt	;clear the watchdog before getting into this loop
   358     07F9                     clrloop0:
   359     07F9  0180               	clrf	0	;clear RAM location pointed to by FSR
   360     07FA  0A84               	incf	4,f	;increment pointer
   361     07FB  0604               	xorwf	4,w	;XOR with final address
   362     07FC  1903               	btfsc	3,2	;have we reached the end yet?
   363     07FD  3400               	retlw	0	;all done for this memory range, return
   364     07FE  0604               	xorwf	4,w	;XOR again to restore value
   365     07FF  2FF9               	goto	clrloop0	;do the next byte
   366                           
   367                           	psect	cstackBANK3
   368     0190                     __pcstackBANK3:
   369     0190                     ??_sprintf:
   370                           
   371                           ; 1 bytes @ 0x0
   372     0190                     	ds	1
   373     0191                     sprintf@s:
   374                           
   375                           ; 1 bytes @ 0x1
   376     0191                     	ds	1
   377     0192                     sprintf@ap:
   378                           
   379                           ; 1 bytes @ 0x2
   380     0192                     	ds	1
   381     0193                     sprintf@f:
   382                           
   383                           ; 11 bytes @ 0x3
   384     0193                     	ds	11
   385     019E                     ??_main:
   386                           
   387                           ; 1 bytes @ 0xE
   388     019E                     	ds	3
   389     01A1                     main@buffer:
   390                           
   391                           ; 32 bytes @ 0x11
   392     01A1                     	ds	32
   393     01C1                     main@voltage:
   394                           
   395                           ; 4 bytes @ 0x31
   396     01C1                     	ds	4
   397     01C5                     main@adc_value:
   398                           
   399                           ; 2 bytes @ 0x35
   400     01C5                     	ds	2
   401                           
   402                           	psect	cstackBANK1
   403     00A0                     __pcstackBANK1:
   404     00A0                     floorf@m:
   405                           
   406                           ; 4 bytes @ 0x0
   407     00A0                     	ds	4
   408     00A4                     floorf@e:
   409                           
   410                           ; 2 bytes @ 0x4
   411     00A4                     	ds	2
   412     00A6                     floorf@u:
   413                           
   414                           ; 4 bytes @ 0x6
   415     00A6                     	ds	4
   416     00AA                     ?_efgtoa:
   417     00AA                     efgtoa@f:	
   418                           ; 1 bytes @ 0xA
   419                           
   420                           
   421                           ; 4 bytes @ 0xA
   422     00AA                     	ds	4
   423     00AE                     efgtoa@c:
   424                           
   425                           ; 1 bytes @ 0xE
   426     00AE                     	ds	1
   427     00AF                     efgtoa@ne:
   428                           
   429                           ; 2 bytes @ 0xF
   430     00AF                     	ds	2
   431     00B1                     efgtoa@p:
   432                           
   433                           ; 2 bytes @ 0x11
   434     00B1                     	ds	2
   435     00B3                     efgtoa@t:
   436                           
   437                           ; 2 bytes @ 0x13
   438     00B3                     	ds	2
   439     00B5                     _efgtoa$861:
   440                           
   441                           ; 2 bytes @ 0x15
   442     00B5                     	ds	2
   443     00B7                     efgtoa@pp:
   444                           
   445                           ; 1 bytes @ 0x17
   446     00B7                     	ds	1
   447     00B8                     efgtoa@mode:
   448                           
   449                           ; 1 bytes @ 0x18
   450     00B8                     	ds	1
   451     00B9                     efgtoa@nmode:
   452                           
   453                           ; 1 bytes @ 0x19
   454     00B9                     	ds	1
   455     00BA                     efgtoa@d:
   456                           
   457                           ; 2 bytes @ 0x1A
   458     00BA                     	ds	2
   459     00BC                     efgtoa@m:
   460                           
   461                           ; 2 bytes @ 0x1C
   462     00BC                     	ds	2
   463     00BE                     efgtoa@fp:
   464                           
   465                           ; 1 bytes @ 0x1E
   466     00BE                     	ds	1
   467     00BF                     efgtoa@e:
   468                           
   469                           ; 2 bytes @ 0x1F
   470     00BF                     	ds	2
   471     00C1                     efgtoa@w:
   472                           
   473                           ; 2 bytes @ 0x21
   474     00C1                     	ds	2
   475     00C3                     efgtoa@ou:
   476                           
   477                           ; 4 bytes @ 0x23
   478     00C3                     	ds	4
   479     00C7                     efgtoa@i:
   480                           
   481                           ; 2 bytes @ 0x27
   482     00C7                     	ds	2
   483     00C9                     efgtoa@h:
   484                           
   485                           ; 4 bytes @ 0x29
   486     00C9                     	ds	4
   487     00CD                     efgtoa@l:
   488                           
   489                           ; 4 bytes @ 0x2D
   490     00CD                     	ds	4
   491     00D1                     efgtoa@sign:
   492                           
   493                           ; 1 bytes @ 0x31
   494     00D1                     	ds	1
   495     00D2                     efgtoa@n:
   496                           
   497                           ; 2 bytes @ 0x32
   498     00D2                     	ds	2
   499     00D4                     efgtoa@g:
   500                           
   501                           ; 4 bytes @ 0x34
   502     00D4                     	ds	4
   503     00D8                     efgtoa@u:
   504                           
   505                           ; 4 bytes @ 0x38
   506     00D8                     	ds	4
   507     00DC                     ?_vfpfcnvrt:
   508     00DC                     vfpfcnvrt@fmt:	
   509                           ; 1 bytes @ 0x3C
   510                           
   511                           
   512                           ; 1 bytes @ 0x3C
   513     00DC                     	ds	1
   514     00DD                     vfpfcnvrt@ap:
   515                           
   516                           ; 1 bytes @ 0x3D
   517     00DD                     	ds	1
   518     00DE                     ??_vfpfcnvrt:
   519                           
   520                           ; 1 bytes @ 0x3E
   521     00DE                     	ds	2
   522     00E0                     vfpfcnvrt@convarg:
   523                           
   524                           ; 4 bytes @ 0x40
   525     00E0                     	ds	4
   526     00E4                     vfpfcnvrt@fp:
   527                           
   528                           ; 1 bytes @ 0x44
   529     00E4                     	ds	1
   530     00E5                     vfpfcnvrt@c:
   531                           
   532                           ; 1 bytes @ 0x45
   533     00E5                     	ds	1
   534     00E6                     vfpfcnvrt@cp:
   535                           
   536                           ; 1 bytes @ 0x46
   537     00E6                     	ds	1
   538     00E7                     ?_vfprintf:
   539     00E7                     vfprintf@fmt:	
   540                           ; 2 bytes @ 0x47
   541                           
   542                           
   543                           ; 1 bytes @ 0x47
   544     00E7                     	ds	1
   545     00E8                     vfprintf@ap:
   546                           
   547                           ; 1 bytes @ 0x48
   548     00E8                     	ds	1
   549     00E9                     vfprintf@fp:
   550                           
   551                           ; 1 bytes @ 0x49
   552     00E9                     	ds	1
   553     00EA                     vfprintf@cfmt:
   554                           
   555                           ; 1 bytes @ 0x4A
   556     00EA                     	ds	1
   557     00EB                     ?_sprintf:
   558     00EB                     sprintf@fmt:	
   559                           ; 2 bytes @ 0x4B
   560                           
   561                           
   562                           ; 1 bytes @ 0x4B
   563     00EB                     	ds	5
   564                           
   565                           	psect	cstackCOMMON
   566     0070                     __pcstackCOMMON:
   567     0070                     ?_init_config:
   568     0070                     ?_putch:	
   569                           ; 1 bytes @ 0x0
   570                           
   571     0070                     ?_main:	
   572                           ; 1 bytes @ 0x0
   573                           
   574     0070                     ?_ISR:	
   575                           ; 1 bytes @ 0x0
   576                           
   577     0070                     ?i1_UART_send_string:	
   578                           ; 1 bytes @ 0x0
   579                           
   580     0070                     putch@c:	
   581                           ; 1 bytes @ 0x0
   582                           
   583     0070                     i1UART_send_string@str:	
   584                           ; 1 bytes @ 0x0
   585                           
   586                           
   587                           ; 2 bytes @ 0x0
   588     0070                     	ds	2
   589     0072                     ??_ISR:
   590     0072                     ??i1_UART_send_string:	
   591                           ; 1 bytes @ 0x2
   592                           
   593                           
   594                           ; 1 bytes @ 0x2
   595     0072                     	ds	7
   596                           
   597                           	psect	cstackBANK0
   598     0020                     __pcstackBANK0:
   599     0020                     ?___fleq:
   600     0020                     ??_init_config:	
   601                           ; 1 bit 
   602                           
   603     0020                     ?_UART_send_string:	
   604                           ; 1 bytes @ 0x0
   605                           
   606     0020                     ?_strcpy:	
   607                           ; 1 bytes @ 0x0
   608                           
   609     0020                     ?_memcpy:	
   610                           ; 1 bytes @ 0x0
   611                           
   612     0020                     ??_putch:	
   613                           ; 1 bytes @ 0x0
   614                           
   615     0020                     ?__Umul8_16:	
   616                           ; 1 bytes @ 0x0
   617                           
   618     0020                     ?_fputc:	
   619                           ; 2 bytes @ 0x0
   620                           
   621     0020                     ?___fpclassifyf:	
   622                           ; 2 bytes @ 0x0
   623                           
   624     0020                     ?___wmul:	
   625                           ; 2 bytes @ 0x0
   626                           
   627     0020                     ?_labs:	
   628                           ; 2 bytes @ 0x0
   629                           
   630     0020                     ?___flneg:	
   631                           ; 4 bytes @ 0x0
   632                           
   633     0020                     ?___fltol:	
   634                           ; 4 bytes @ 0x0
   635                           
   636     0020                     ?___fladd:	
   637                           ; 4 bytes @ 0x0
   638                           
   639     0020                     ?___xxtofl:	
   640                           ; 4 bytes @ 0x0
   641                           
   642     0020                     __Umul8_16@multiplicand:	
   643                           ; 4 bytes @ 0x0
   644                           
   645     0020                     memcpy@s1:	
   646                           ; 1 bytes @ 0x0
   647                           
   648     0020                     strcpy@src:	
   649                           ; 1 bytes @ 0x0
   650                           
   651     0020                     UART_send_string@str:	
   652                           ; 1 bytes @ 0x0
   653                           
   654     0020                     ___wmul@multiplier:	
   655                           ; 2 bytes @ 0x0
   656                           
   657     0020                     fputc@c:	
   658                           ; 2 bytes @ 0x0
   659                           
   660     0020                     ___fleq@ff1:	
   661                           ; 2 bytes @ 0x0
   662                           
   663     0020                     ___flneg@f1:	
   664                           ; 4 bytes @ 0x0
   665                           
   666     0020                     ___fltol@f1:	
   667                           ; 4 bytes @ 0x0
   668                           
   669     0020                     ___fladd@b:	
   670                           ; 4 bytes @ 0x0
   671                           
   672     0020                     ___xxtofl@val:	
   673                           ; 4 bytes @ 0x0
   674                           
   675     0020                     ___fpclassifyf@x:	
   676                           ; 4 bytes @ 0x0
   677                           
   678     0020                     labs@a:	
   679                           ; 4 bytes @ 0x0
   680                           
   681                           
   682                           ; 4 bytes @ 0x0
   683     0020                     	ds	1
   684     0021                     ??_strcpy:
   685     0021                     strcpy@d:	
   686                           ; 1 bytes @ 0x1
   687                           
   688     0021                     memcpy@n:	
   689                           ; 1 bytes @ 0x1
   690                           
   691                           
   692                           ; 2 bytes @ 0x1
   693     0021                     	ds	1
   694     0022                     ??_UART_send_string:
   695     0022                     ??__Umul8_16:	
   696                           ; 1 bytes @ 0x2
   697                           
   698     0022                     fputc@fp:	
   699                           ; 1 bytes @ 0x2
   700                           
   701     0022                     strcpy@dest:	
   702                           ; 1 bytes @ 0x2
   703                           
   704     0022                     ___wmul@multiplicand:	
   705                           ; 1 bytes @ 0x2
   706                           
   707                           
   708                           ; 2 bytes @ 0x2
   709     0022                     	ds	1
   710     0023                     ??_fputc:
   711     0023                     ??_memcpy:	
   712                           ; 1 bytes @ 0x3
   713                           
   714     0023                     memcpy@tmp:	
   715                           ; 1 bytes @ 0x3
   716                           
   717                           
   718                           ; 1 bytes @ 0x3
   719     0023                     	ds	1
   720     0024                     ??___fpclassifyf:
   721     0024                     ??_labs:	
   722                           ; 1 bytes @ 0x4
   723                           
   724     0024                     ??___wmul:	
   725                           ; 1 bytes @ 0x4
   726                           
   727     0024                     ??___flneg:	
   728                           ; 1 bytes @ 0x4
   729                           
   730     0024                     ??___fltol:	
   731                           ; 1 bytes @ 0x4
   732                           
   733     0024                     ??___xxtofl:	
   734                           ; 1 bytes @ 0x4
   735                           
   736     0024                     memcpy@d1:	
   737                           ; 1 bytes @ 0x4
   738                           
   739     0024                     ___wmul@product:	
   740                           ; 1 bytes @ 0x4
   741                           
   742     0024                     __Umul8_16@product:	
   743                           ; 2 bytes @ 0x4
   744                           
   745     0024                     ___fleq@ff2:	
   746                           ; 2 bytes @ 0x4
   747                           
   748     0024                     ___fladd@a:	
   749                           ; 4 bytes @ 0x4
   750                           
   751                           
   752                           ; 4 bytes @ 0x4
   753     0024                     	ds	1
   754     0025                     memcpy@d:
   755                           
   756                           ; 1 bytes @ 0x5
   757     0025                     	ds	1
   758     0026                     ?_read_prec_or_width:
   759     0026                     read_prec_or_width@ap:	
   760                           ; 2 bytes @ 0x6
   761                           
   762     0026                     memcpy@s:	
   763                           ; 1 bytes @ 0x6
   764                           
   765     0026                     __Umul8_16@word_mpld:	
   766                           ; 1 bytes @ 0x6
   767                           
   768                           
   769                           ; 2 bytes @ 0x6
   770     0026                     	ds	2
   771     0028                     ??___fleq:
   772     0028                     ??___fladd:	
   773                           ; 1 bytes @ 0x8
   774                           
   775     0028                     ??_read_prec_or_width:	
   776                           ; 1 bytes @ 0x8
   777                           
   778     0028                     ?_fputs:	
   779                           ; 1 bytes @ 0x8
   780                           
   781     0028                     ___fltol@sign1:	
   782                           ; 2 bytes @ 0x8
   783                           
   784     0028                     __Umul8_16@multiplier:	
   785                           ; 1 bytes @ 0x8
   786                           
   787     0028                     ___xxtofl@sign:	
   788                           ; 1 bytes @ 0x8
   789                           
   790     0028                     read_prec_or_width@c:	
   791                           ; 1 bytes @ 0x8
   792                           
   793     0028                     fputs@fp:	
   794                           ; 1 bytes @ 0x8
   795                           
   796                           
   797                           ; 1 bytes @ 0x8
   798     0028                     	ds	1
   799     0029                     ??_fputs:
   800     0029                     ___fltol@exp1:	
   801                           ; 1 bytes @ 0x9
   802                           
   803     0029                     ___xxtofl@exp:	
   804                           ; 1 bytes @ 0x9
   805                           
   806     0029                     read_prec_or_width@n:	
   807                           ; 1 bytes @ 0x9
   808                           
   809                           
   810                           ; 2 bytes @ 0x9
   811     0029                     	ds	1
   812     002A                     ___fpclassifyf@e:
   813     002A                     ___xxtofl@arg:	
   814                           ; 2 bytes @ 0xA
   815                           
   816                           
   817                           ; 4 bytes @ 0xA
   818     002A                     	ds	1
   819     002B                     read_prec_or_width@fmt:
   820     002B                     fputs@c:	
   821                           ; 1 bytes @ 0xB
   822                           
   823                           
   824                           ; 1 bytes @ 0xB
   825     002B                     	ds	1
   826     002C                     fputs@i:
   827     002C                     ___fpclassifyf@u:	
   828                           ; 2 bytes @ 0xC
   829                           
   830                           
   831                           ; 4 bytes @ 0xC
   832     002C                     	ds	2
   833     002E                     ?___flmul:
   834     002E                     fputs@s:	
   835                           ; 4 bytes @ 0xE
   836                           
   837     002E                     ___flmul@b:	
   838                           ; 1 bytes @ 0xE
   839                           
   840                           
   841                           ; 4 bytes @ 0xE
   842     002E                     	ds	1
   843     002F                     ?_pad:
   844     002F                     pad@buf:	
   845                           ; 1 bytes @ 0xF
   846                           
   847                           
   848                           ; 1 bytes @ 0xF
   849     002F                     	ds	1
   850     0030                     ___fladd@signs:
   851     0030                     pad@p:	
   852                           ; 1 bytes @ 0x10
   853                           
   854                           
   855                           ; 2 bytes @ 0x10
   856     0030                     	ds	1
   857     0031                     ___fladd@aexp:
   858                           
   859                           ; 1 bytes @ 0x11
   860     0031                     	ds	1
   861     0032                     ??_pad:
   862     0032                     ___fladd@bexp:	
   863                           ; 1 bytes @ 0x12
   864                           
   865     0032                     ___flmul@a:	
   866                           ; 1 bytes @ 0x12
   867                           
   868                           
   869                           ; 4 bytes @ 0x12
   870     0032                     	ds	1
   871     0033                     ___fladd@grs:
   872     0033                     pad@i:	
   873                           ; 1 bytes @ 0x13
   874                           
   875                           
   876                           ; 2 bytes @ 0x13
   877     0033                     	ds	2
   878     0035                     pad@fp:
   879                           
   880                           ; 1 bytes @ 0x15
   881     0035                     	ds	1
   882     0036                     ??___flmul:
   883                           
   884                           ; 1 bytes @ 0x16
   885     0036                     	ds	5
   886     003B                     ___flmul@sign:
   887                           
   888                           ; 1 bytes @ 0x1B
   889     003B                     	ds	1
   890     003C                     ___flmul@grs:
   891                           
   892                           ; 4 bytes @ 0x1C
   893     003C                     	ds	4
   894     0040                     ___flmul@aexp:
   895                           
   896                           ; 1 bytes @ 0x20
   897     0040                     	ds	1
   898     0041                     ___flmul@bexp:
   899                           
   900                           ; 1 bytes @ 0x21
   901     0041                     	ds	1
   902     0042                     ___flmul@prod:
   903                           
   904                           ; 4 bytes @ 0x22
   905     0042                     	ds	4
   906     0046                     ___flmul@temp:
   907                           
   908                           ; 2 bytes @ 0x26
   909     0046                     	ds	2
   910     0048                     ?___flge:
   911     0048                     ?___flsub:	
   912                           ; 1 bit 
   913                           
   914     0048                     ?___fldiv:	
   915                           ; 4 bytes @ 0x28
   916                           
   917     0048                     ___flge@ff1:	
   918                           ; 4 bytes @ 0x28
   919                           
   920     0048                     ___flsub@a:	
   921                           ; 4 bytes @ 0x28
   922                           
   923     0048                     ___fldiv@a:	
   924                           ; 4 bytes @ 0x28
   925                           
   926                           
   927                           ; 4 bytes @ 0x28
   928     0048                     	ds	4
   929     004C                     ___flge@ff2:
   930     004C                     ___flsub@b:	
   931                           ; 4 bytes @ 0x2C
   932                           
   933     004C                     ___fldiv@b:	
   934                           ; 4 bytes @ 0x2C
   935                           
   936                           
   937                           ; 4 bytes @ 0x2C
   938     004C                     	ds	4
   939     0050                     ??___flge:
   940     0050                     ??___flsub:	
   941                           ; 1 bytes @ 0x30
   942                           
   943     0050                     ??___fldiv:	
   944                           ; 1 bytes @ 0x30
   945                           
   946                           
   947                           ; 1 bytes @ 0x30
   948     0050                     	ds	5
   949     0055                     ___fldiv@rem:
   950                           
   951                           ; 4 bytes @ 0x35
   952     0055                     	ds	4
   953     0059                     ___fldiv@sign:
   954                           
   955                           ; 1 bytes @ 0x39
   956     0059                     	ds	1
   957     005A                     ___fldiv@new_exp:
   958                           
   959                           ; 2 bytes @ 0x3A
   960     005A                     	ds	2
   961     005C                     ___fldiv@grs:
   962                           
   963                           ; 4 bytes @ 0x3C
   964     005C                     	ds	4
   965     0060                     ___fldiv@bexp:
   966                           
   967                           ; 1 bytes @ 0x40
   968     0060                     	ds	1
   969     0061                     ___fldiv@aexp:
   970                           
   971                           ; 1 bytes @ 0x41
   972     0061                     	ds	1
   973     0062                     ?_floorf:
   974     0062                     floorf@x:	
   975                           ; 4 bytes @ 0x42
   976                           
   977                           
   978                           ; 4 bytes @ 0x42
   979     0062                     	ds	4
   980     0066                     ??_floorf:
   981                           
   982                           ; 1 bytes @ 0x46
   983     0066                     	ds	6
   984     006C                     ??_efgtoa:
   985                           
   986                           ; 1 bytes @ 0x4C
   987     006C                     	ds	4
   988     0070                     ??_vfprintf:
   989                           
   990                           	psect	maintext
   991     1282                     __pmaintext:	
   992                           ; 1 bytes @ 0x50
   993 ;;
   994 ;;Main: autosize = 0, tempsize = 3, incstack = 0, save=0
   995 ;;
   996 ;; *************** function _main *****************
   997 ;; Defined at:
   998 ;;		line 31 in file "newmain.c"
   999 ;; Parameters:    Size  Location     Type
  1000 ;;		None
  1001 ;; Auto vars:     Size  Location     Type
  1002 ;;  buffer         32   17[BANK3 ] unsigned char [32]
  1003 ;;  voltage         4   49[BANK3 ] float 
  1004 ;;  adc_value       2   53[BANK3 ] unsigned short 
  1005 ;; Return value:  Size  Location     Type
  1006 ;;                  1    wreg      void 
  1007 ;; Registers used:
  1008 ;;		wreg, fsr0l, fsr0h, status,2, status,0, btemp+1, pclath, cstack
  1009 ;; Tracked objects:
  1010 ;;		On entry : B00/0
  1011 ;;		On exit  : 0/0
  1012 ;;		Unchanged: 0/0
  1013 ;; Data sizes:     COMMON   BANK0   BANK1   BANK3   BANK2
  1014 ;;      Params:         0       0       0       0       0
  1015 ;;      Locals:         0       0       0      38       0
  1016 ;;      Temps:          0       0       0       3       0
  1017 ;;      Totals:         0       0       0      41       0
  1018 ;;Total ram usage:       41 bytes
  1019 ;; Hardware stack levels required when called: 11
  1020 ;; This function calls:
  1021 ;;		_UART_send_string
  1022 ;;		___fldiv
  1023 ;;		___flmul
  1024 ;;		___xxtofl
  1025 ;;		_init_config
  1026 ;;		_sprintf
  1027 ;; This function is called by:
  1028 ;;		Startup code after reset
  1029 ;; This function uses a non-reentrant model
  1030 ;;
  1031                           
  1032     1282                     _main:	
  1033                           ;psect for function _main
  1034                           
  1035     1282                     l3058:	
  1036                           ;incstack = 0
  1037 ;; hardware stack exceeded
  1038                           ; Regs used in _main: [wreg-fsr0h+status,2+status,0+btemp+1+pclath+cstack]
  1039                           
  1040                           
  1041                           ;newmain.c: 32:     }
  1042     1282  160A  158A  25EF  160A  118A  	fcall	_init_config
  1043     1287                     l3060:
  1044     1287                     l3062:
  1045     1287                     l3064:
  1046                           
  1047                           ;newmain.c: 40: 
  1048     1287  300F               	movlw	15
  1049     1288  1283               	bcf	3,5	;RP0=0, select bank0
  1050     1289  1303               	bcf	3,6	;RP1=0, select bank0
  1051     128A  0088               	movwf	8	;volatile
  1052     128B                     l3066:
  1053                           
  1054                           ;newmain.c: 41: 
  1055     128B  3033               	movlw	51
  1056     128C  1683               	bsf	3,5	;RP0=1, select bank3
  1057     128D  1703               	bsf	3,6	;RP1=1, select bank3
  1058     128E  00A0               	movwf	(??_main^(0+384)+2)
  1059     128F  30BB               	movlw	187
  1060     1290  009F               	movwf	(??_main^(0+384)+1)
  1061     1291  30DF               	movlw	223
  1062     1292  009E               	movwf	??_main^(0+384)
  1063     1293                     u4637:
  1064     1293  0B9E               	decfsz	??_main^(0+384),f
  1065     1294  2A93               	goto	u4637
  1066     1295  0B9F               	decfsz	(??_main^(0+384)+1),f
  1067     1296  2A93               	goto	u4637
  1068     1297  0BA0               	decfsz	(??_main^(0+384)+2),f
  1069     1298  2A93               	goto	u4637
  1070     1299                     l3068:
  1071                           
  1072                           ;newmain.c: 42:     ADCON0 = 0x41;
  1073     1299  1283               	bcf	3,5	;RP0=0, select bank0
  1074     129A  1303               	bcf	3,6	;RP1=0, select bank0
  1075     129B  0188               	clrf	8	;volatile
  1076     129C                     l3070:
  1077                           
  1078                           ;newmain.c: 43:     ADCON1 = 0x8E;
  1079     129C  3033               	movlw	51
  1080     129D  1683               	bsf	3,5	;RP0=1, select bank3
  1081     129E  1703               	bsf	3,6	;RP1=1, select bank3
  1082     129F  00A0               	movwf	(??_main^(0+384)+2)
  1083     12A0  30BB               	movlw	187
  1084     12A1  009F               	movwf	(??_main^(0+384)+1)
  1085     12A2  30DF               	movlw	223
  1086     12A3  009E               	movwf	??_main^(0+384)
  1087     12A4                     u4647:
  1088     12A4  0B9E               	decfsz	??_main^(0+384),f
  1089     12A5  2AA4               	goto	u4647
  1090     12A6  0B9F               	decfsz	(??_main^(0+384)+1),f
  1091     12A7  2AA4               	goto	u4647
  1092     12A8  0BA0               	decfsz	(??_main^(0+384)+2),f
  1093     12A9  2AA4               	goto	u4647
  1094     12AA                     l3072:
  1095                           
  1096                           ;newmain.c: 46:     TXSTAbits.SYNC = 0;
  1097     12AA  1283               	bcf	3,5	;RP0=0, select bank0
  1098     12AB  1303               	bcf	3,6	;RP1=0, select bank0
  1099     12AC  151F               	bsf	31,2	;volatile
  1100     12AD                     l46:	
  1101                           ;newmain.c: 47:     TXSTAbits.BRGH = 1;
  1102                           
  1103     12AD  191F               	btfsc	31,2	;volatile
  1104     12AE  2AB0               	goto	u4611
  1105     12AF  2AB1               	goto	u4610
  1106     12B0                     u4611:
  1107     12B0  2AAD               	goto	l46
  1108     12B1                     u4610:
  1109     12B1                     l3074:
  1110                           
  1111                           ;newmain.c: 48:     SPBRG = 129;
  1112     12B1  081E               	movf	30,w	;volatile
  1113     12B2  1683               	bsf	3,5	;RP0=1, select bank3
  1114     12B3  1703               	bsf	3,6	;RP1=1, select bank3
  1115     12B4  00C6               	movwf	(main@adc_value+1)^(0+384)
  1116     12B5  1683               	bsf	3,5	;RP0=1, select bank1
  1117     12B6  1303               	bcf	3,6	;RP1=0, select bank1
  1118     12B7  081E               	movf	30,w	;volatile
  1119     12B8  1683               	bsf	3,5	;RP0=1, select bank3
  1120     12B9  1703               	bsf	3,6	;RP1=1, select bank3
  1121     12BA  00C5               	movwf	main@adc_value^(0+384)
  1122     12BB                     l3076:
  1123                           
  1124                           ;newmain.c: 51: 
  1125     12BB  3044               	movlw	68
  1126     12BC  1283               	bcf	3,5	;RP0=0, select bank0
  1127     12BD  1303               	bcf	3,6	;RP1=0, select bank0
  1128     12BE  00CB               	movwf	___fldiv@a+3
  1129     12BF  307F               	movlw	127
  1130     12C0  00CA               	movwf	___fldiv@a+2
  1131     12C1  30C0               	movlw	192
  1132     12C2  00C9               	movwf	___fldiv@a+1
  1133     12C3  3000               	movlw	0
  1134     12C4  00C8               	movwf	___fldiv@a
  1135     12C5  3040               	movlw	64
  1136     12C6  00B1               	movwf	___flmul@b+3
  1137     12C7  30A0               	movlw	160
  1138     12C8  00B0               	movwf	___flmul@b+2
  1139     12C9  3000               	movlw	0
  1140     12CA  00AF               	movwf	___flmul@b+1
  1141     12CB  3000               	movlw	0
  1142     12CC  00AE               	movwf	___flmul@b
  1143     12CD  1683               	bsf	3,5	;RP0=1, select bank3
  1144     12CE  1703               	bsf	3,6	;RP1=1, select bank3
  1145     12CF  0845               	movf	main@adc_value^(0+384),w
  1146     12D0  1283               	bcf	3,5	;RP0=0, select bank0
  1147     12D1  1303               	bcf	3,6	;RP1=0, select bank0
  1148     12D2  00A0               	movwf	___xxtofl@val
  1149     12D3  1683               	bsf	3,5	;RP0=1, select bank3
  1150     12D4  1703               	bsf	3,6	;RP1=1, select bank3
  1151     12D5  0846               	movf	(main@adc_value+1)^(0+384),w
  1152     12D6  1283               	bcf	3,5	;RP0=0, select bank0
  1153     12D7  1303               	bcf	3,6	;RP1=0, select bank0
  1154     12D8  00A1               	movwf	___xxtofl@val+1
  1155     12D9  01A2               	clrf	___xxtofl@val+2
  1156     12DA  01A3               	clrf	___xxtofl@val+3
  1157     12DB  3000               	movlw	0
  1158     12DC  160A  118A  21C8  160A  118A  	fcall	___xxtofl
  1159     12E1  1283               	bcf	3,5	;RP0=0, select bank0
  1160     12E2  1303               	bcf	3,6	;RP1=0, select bank0
  1161     12E3  0823               	movf	?___xxtofl+3,w
  1162     12E4  00B5               	movwf	___flmul@a+3
  1163     12E5  0822               	movf	?___xxtofl+2,w
  1164     12E6  00B4               	movwf	___flmul@a+2
  1165     12E7  0821               	movf	?___xxtofl+1,w
  1166     12E8  00B3               	movwf	___flmul@a+1
  1167     12E9  0820               	movf	?___xxtofl,w
  1168     12EA  00B2               	movwf	___flmul@a
  1169     12EB  120A  158A  24BB  160A  118A  	fcall	___flmul
  1170     12F0  1283               	bcf	3,5	;RP0=0, select bank0
  1171     12F1  1303               	bcf	3,6	;RP1=0, select bank0
  1172     12F2  0831               	movf	?___flmul+3,w
  1173     12F3  00CF               	movwf	___fldiv@b+3
  1174     12F4  0830               	movf	?___flmul+2,w
  1175     12F5  00CE               	movwf	___fldiv@b+2
  1176     12F6  082F               	movf	?___flmul+1,w
  1177     12F7  00CD               	movwf	___fldiv@b+1
  1178     12F8  082E               	movf	?___flmul,w
  1179     12F9  00CC               	movwf	___fldiv@b
  1180     12FA  120A  118A  25D9  160A  118A  	fcall	___fldiv
  1181     12FF  1283               	bcf	3,5	;RP0=0, select bank0
  1182     1300  1303               	bcf	3,6	;RP1=0, select bank0
  1183     1301  084B               	movf	?___fldiv+3,w
  1184     1302  1683               	bsf	3,5	;RP0=1, select bank3
  1185     1303  1703               	bsf	3,6	;RP1=1, select bank3
  1186     1304  00C4               	movwf	(main@voltage+3)^(0+384)
  1187     1305  1283               	bcf	3,5	;RP0=0, select bank0
  1188     1306  1303               	bcf	3,6	;RP1=0, select bank0
  1189     1307  084A               	movf	?___fldiv+2,w
  1190     1308  1683               	bsf	3,5	;RP0=1, select bank3
  1191     1309  1703               	bsf	3,6	;RP1=1, select bank3
  1192     130A  00C3               	movwf	(main@voltage+2)^(0+384)
  1193     130B  1283               	bcf	3,5	;RP0=0, select bank0
  1194     130C  1303               	bcf	3,6	;RP1=0, select bank0
  1195     130D  0849               	movf	?___fldiv+1,w
  1196     130E  1683               	bsf	3,5	;RP0=1, select bank3
  1197     130F  1703               	bsf	3,6	;RP1=1, select bank3
  1198     1310  00C2               	movwf	(main@voltage+1)^(0+384)
  1199     1311  1283               	bcf	3,5	;RP0=0, select bank0
  1200     1312  1303               	bcf	3,6	;RP1=0, select bank0
  1201     1313  0848               	movf	?___fldiv,w
  1202     1314  1683               	bsf	3,5	;RP0=1, select bank3
  1203     1315  1703               	bsf	3,6	;RP1=1, select bank3
  1204     1316  00C1               	movwf	main@voltage^(0+384)
  1205     1317                     l3078:
  1206                           
  1207                           ;newmain.c: 54:     INTCONbits.PEIE = 1;
  1208     1317  3016               	movlw	(low ((STR_1-__stringbase)| (0+32768)))& (0+255)
  1209     1318  1683               	bsf	3,5	;RP0=1, select bank1
  1210     1319  1303               	bcf	3,6	;RP1=0, select bank1
  1211     131A  00EB               	movwf	sprintf@fmt^(0+128)
  1212     131B  1683               	bsf	3,5	;RP0=1, select bank3
  1213     131C  1703               	bsf	3,6	;RP1=1, select bank3
  1214     131D  0844               	movf	(main@voltage+3)^(0+384),w
  1215     131E  1683               	bsf	3,5	;RP0=1, select bank1
  1216     131F  1303               	bcf	3,6	;RP1=0, select bank1
  1217     1320  00EF               	movwf	((?_sprintf+3)^(0+128)+1)
  1218     1321  1683               	bsf	3,5	;RP0=1, select bank3
  1219     1322  1703               	bsf	3,6	;RP1=1, select bank3
  1220     1323  0843               	movf	(main@voltage+2)^(0+384),w
  1221     1324  1683               	bsf	3,5	;RP0=1, select bank1
  1222     1325  1303               	bcf	3,6	;RP1=0, select bank1
  1223     1326  00EE               	movwf	((?_sprintf+2)^(0+128)+1)
  1224     1327  1683               	bsf	3,5	;RP0=1, select bank3
  1225     1328  1703               	bsf	3,6	;RP1=1, select bank3
  1226     1329  0842               	movf	(main@voltage+1)^(0+384),w
  1227     132A  1683               	bsf	3,5	;RP0=1, select bank1
  1228     132B  1303               	bcf	3,6	;RP1=0, select bank1
  1229     132C  00ED               	movwf	((?_sprintf+1)^(0+128)+1)
  1230     132D  1683               	bsf	3,5	;RP0=1, select bank3
  1231     132E  1703               	bsf	3,6	;RP1=1, select bank3
  1232     132F  0841               	movf	main@voltage^(0+384),w
  1233     1330  1683               	bsf	3,5	;RP0=1, select bank1
  1234     1331  1303               	bcf	3,6	;RP1=0, select bank1
  1235     1332  00EC               	movwf	(?_sprintf^(0+128)+1)
  1236     1333  30A1               	movlw	(low (main@buffer| (0+256)))& (0+255)
  1237     1334  160A  158A  2631  160A  118A  	fcall	_sprintf
  1238     1339                     l3080:
  1239                           
  1240                           ;newmain.c: 55:     INTCONbits.INTE = 1;
  1241     1339  30A1               	movlw	(low (main@buffer| (0+256)))& (0+255)
  1242     133A  1283               	bcf	3,5	;RP0=0, select bank0
  1243     133B  1303               	bcf	3,6	;RP1=0, select bank0
  1244     133C  00A0               	movwf	UART_send_string@str
  1245     133D  3001               	movlw	1
  1246     133E  00A1               	movwf	UART_send_string@str+1
  1247     133F  160A  158A  2718  160A  118A  	fcall	_UART_send_string
  1248     1344  2A87               	goto	l3064
  1249     1345  120A  118A  2810   	ljmp	start
  1250     1348                     __end_of_main:
  1251                           
  1252                           	psect	text1
  1253     1E31                     __ptext1:	
  1254 ;; *************** function _sprintf *****************
  1255 ;; Defined at:
  1256 ;;		line 9 in file "C:\Program Files\Microchip\xc8\v2.46\pic\sources\c99\common\nf_sprintf.c"
  1257 ;; Parameters:    Size  Location     Type
  1258 ;;  s               1    wreg     PTR unsigned char 
  1259 ;;		 -> main@buffer(32), 
  1260 ;;  fmt             1   75[BANK1 ] PTR const unsigned char 
  1261 ;;		 -> STR_1(18), 
  1262 ;; Auto vars:     Size  Location     Type
  1263 ;;  s               1    1[BANK3 ] PTR unsigned char 
  1264 ;;		 -> main@buffer(32), 
  1265 ;;  f              11    3[BANK3 ] struct _IO_FILE
  1266 ;;  ret             2    0        int 
  1267 ;;  ap              1    2[BANK3 ] PTR void [1]
  1268 ;;		 -> ?_sprintf(2), 
  1269 ;; Return value:  Size  Location     Type
  1270 ;;                  2   75[BANK1 ] int 
  1271 ;; Registers used:
  1272 ;;		wreg, fsr0l, fsr0h, status,2, status,0, btemp+1, pclath, cstack
  1273 ;; Tracked objects:
  1274 ;;		On entry : 0/0
  1275 ;;		On exit  : 0/0
  1276 ;;		Unchanged: 0/0
  1277 ;; Data sizes:     COMMON   BANK0   BANK1   BANK3   BANK2
  1278 ;;      Params:         0       0       5       0       0
  1279 ;;      Locals:         0       0       0      13       0
  1280 ;;      Temps:          0       0       0       1       0
  1281 ;;      Totals:         0       0       5      14       0
  1282 ;;Total ram usage:       19 bytes
  1283 ;; Hardware stack levels used: 1
  1284 ;; Hardware stack levels required when called: 10
  1285 ;; This function calls:
  1286 ;;		_vfprintf
  1287 ;; This function is called by:
  1288 ;;		_main
  1289 ;; This function uses a non-reentrant model
  1290 ;;
  1291                           
  1292     1E31                     _sprintf:	
  1293                           ;psect for function _sprintf
  1294                           
  1295                           
  1296                           ;incstack = 0
  1297 ;; hardware stack exceeded
  1298                           ; Regs used in _sprintf: [wreg-fsr0h+status,2+status,0+btemp+1+pclath+cstack]
  1299                           ;sprintf@s stored from wreg
  1300     1E31  1683               	bsf	3,5	;RP0=1, select bank3
  1301     1E32  1703               	bsf	3,6	;RP1=1, select bank3
  1302     1E33  0091               	movwf	sprintf@s^(0+384)
  1303     1E34                     l2982:
  1304     1E34  30EC               	movlw	(low ((?_sprintf| 0+1)))& (0+255)
  1305     1E35  0092               	movwf	sprintf@ap^(0+384)
  1306     1E36  0811               	movf	sprintf@s^(0+384),w
  1307     1E37  0093               	movwf	sprintf@f^(0+384)
  1308     1E38                     l2984:
  1309     1E38  0195               	clrf	(sprintf@f^(0+384)+2)
  1310     1E39  0196               	clrf	((sprintf@f+1)^(0+384)+2)
  1311     1E3A                     l2986:
  1312     1E3A  019C               	clrf	(sprintf@f^(0+384)+9)
  1313     1E3B  019D               	clrf	((sprintf@f+1)^(0+384)+9)
  1314     1E3C                     l2988:
  1315     1E3C  1683               	bsf	3,5	;RP0=1, select bank1
  1316     1E3D  1303               	bcf	3,6	;RP1=0, select bank1
  1317     1E3E  086B               	movf	sprintf@fmt^(0+128),w
  1318     1E3F  00E7               	movwf	vfprintf@fmt^(0+128)
  1319     1E40  3092               	movlw	(low (sprintf@ap| (0+256)))& (0+255)
  1320     1E41  00E8               	movwf	vfprintf@ap^(0+128)
  1321     1E42  3093               	movlw	(low (sprintf@f| (0+256)))& (0+255)
  1322     1E43  160A  158A  2610  160A  158A  	fcall	_vfprintf
  1323     1E48                     l2990:
  1324     1E48  1683               	bsf	3,5	;RP0=1, select bank3
  1325     1E49  1703               	bsf	3,6	;RP1=1, select bank3
  1326     1E4A  0815               	movf	(sprintf@f^(0+384)+2),w
  1327     1E4B  0711               	addwf	sprintf@s^(0+384),w
  1328     1E4C  0090               	movwf	??_sprintf^(0+384)
  1329     1E4D  0810               	movf	??_sprintf^(0+384),w
  1330     1E4E  0084               	movwf	4
  1331     1E4F  1783               	bsf	3,7	;select IRP bank2
  1332     1E50  0180               	clrf	0
  1333     1E51                     l618:
  1334     1E51  0008               	return
  1335     1E52                     __end_of_sprintf:
  1336                           
  1337                           	psect	text2
  1338     1E10                     __ptext2:	
  1339 ;; *************** function _vfprintf *****************
  1340 ;; Defined at:
  1341 ;;		line 1817 in file "C:\Program Files\Microchip\xc8\v2.46\pic\sources\c99\common\doprnt.c"
  1342 ;; Parameters:    Size  Location     Type
  1343 ;;  fp              1    wreg     PTR struct _IO_FILE
  1344 ;;		 -> sprintf@f(11), 
  1345 ;;  fmt             1   71[BANK1 ] PTR const unsigned char 
  1346 ;;		 -> STR_1(18), 
  1347 ;;  ap              1   72[BANK1 ] PTR PTR void 
  1348 ;;		 -> sprintf@ap(1), 
  1349 ;; Auto vars:     Size  Location     Type
  1350 ;;  fp              1   73[BANK1 ] PTR struct _IO_FILE
  1351 ;;		 -> sprintf@f(11), 
  1352 ;;  cfmt            1   74[BANK1 ] PTR unsigned char 
  1353 ;;		 -> STR_1(18), 
  1354 ;; Return value:  Size  Location     Type
  1355 ;;                  2   71[BANK1 ] int 
  1356 ;; Registers used:
  1357 ;;		wreg, fsr0l, fsr0h, status,2, status,0, btemp+1, pclath, cstack
  1358 ;; Tracked objects:
  1359 ;;		On entry : 0/0
  1360 ;;		On exit  : 0/0
  1361 ;;		Unchanged: 0/0
  1362 ;; Data sizes:     COMMON   BANK0   BANK1   BANK3   BANK2
  1363 ;;      Params:         0       0       2       0       0
  1364 ;;      Locals:         0       0       2       0       0
  1365 ;;      Temps:          0       0       0       0       0
  1366 ;;      Totals:         0       0       4       0       0
  1367 ;;Total ram usage:        4 bytes
  1368 ;; Hardware stack levels used: 1
  1369 ;; Hardware stack levels required when called: 9
  1370 ;; This function calls:
  1371 ;;		_vfpfcnvrt
  1372 ;; This function is called by:
  1373 ;;		_sprintf
  1374 ;; This function uses a non-reentrant model
  1375 ;;
  1376                           
  1377     1E10                     _vfprintf:	
  1378                           ;psect for function _vfprintf
  1379                           
  1380                           
  1381                           ;incstack = 0
  1382 ;; hardware stack exceeded
  1383                           ; Regs used in _vfprintf: [wreg-fsr0h+status,2+status,0+btemp+1+pclath+cstack]
  1384                           ;vfprintf@fp stored from wreg
  1385     1E10  1683               	bsf	3,5	;RP0=1, select bank1
  1386     1E11  1303               	bcf	3,6	;RP1=0, select bank1
  1387     1E12  00E9               	movwf	vfprintf@fp^(0+128)
  1388     1E13                     l2942:
  1389                           
  1390                           ;C:\Program Files\Microchip\xc8\v2.46\pic\sources\c99\common\doprnt.c: 1817: int vfprint
      +                          f(FILE *fp, const char *fmt, va_list ap);C:\Program Files\Microchip\xc8\v2.46\pic\source
      +                          s\c99\common\doprnt.c: 1818: {;C:\Program Files\Microchip\xc8\v2.46\pic\sources\c99\comm
      +                          on\doprnt.c: 1820:     char *cfmt;;C:\Program Files\Microchip\xc8\v2.46\pic\sources\c99\
      +                          common\doprnt.c: 1822:     cfmt = (char *)fmt;
  1391     1E13  0867               	movf	vfprintf@fmt^(0+128),w
  1392     1E14  00EA               	movwf	vfprintf@cfmt^(0+128)
  1393                           
  1394                           ;C:\Program Files\Microchip\xc8\v2.46\pic\sources\c99\common\doprnt.c: 1826:     while (
      +                          *cfmt) {
  1395     1E15  2E20               	goto	l2946
  1396     1E16                     l2944:
  1397                           
  1398                           ;C:\Program Files\Microchip\xc8\v2.46\pic\sources\c99\common\doprnt.c: 1830:    vfpfcnvr
      +                          t(fp, &cfmt, ap);
  1399     1E16  30EA               	movlw	(low (vfprintf@cfmt| 0))& (0+255)
  1400     1E17  00DC               	movwf	vfpfcnvrt@fmt^(0+128)
  1401     1E18  0868               	movf	vfprintf@ap^(0+128),w
  1402     1E19  00DD               	movwf	vfpfcnvrt@ap^(0+128)
  1403     1E1A  0869               	movf	vfprintf@fp^(0+128),w
  1404     1E1B  160A  118A  2348  160A  158A  	fcall	_vfpfcnvrt
  1405     1E20                     l2946:
  1406                           
  1407                           ;C:\Program Files\Microchip\xc8\v2.46\pic\sources\c99\common\doprnt.c: 1826:     while (
      +                          *cfmt) {
  1408     1E20  1683               	bsf	3,5	;RP0=1, select bank1
  1409     1E21  1303               	bcf	3,6	;RP1=0, select bank1
  1410     1E22  086A               	movf	vfprintf@cfmt^(0+128),w
  1411     1E23  0084               	movwf	4
  1412     1E24  160A  158A  200A  160A  158A  	fcall	stringdir
  1413     1E29  3A00               	xorlw	0
  1414     1E2A  1D03               	skipz
  1415     1E2B  2E2D               	goto	u4421
  1416     1E2C  2E2E               	goto	u4420
  1417     1E2D                     u4421:
  1418     1E2D  2E16               	goto	l2944
  1419     1E2E                     u4420:
  1420     1E2E                     l2948:
  1421                           
  1422                           ;C:\Program Files\Microchip\xc8\v2.46\pic\sources\c99\common\doprnt.c: 1835:  return 0;
  1423     1E2E  01E7               	clrf	?_vfprintf^(0+128)
  1424     1E2F  01E8               	clrf	(?_vfprintf+1)^(0+128)
  1425     1E30                     l736:
  1426     1E30  0008               	return
  1427     1E31                     __end_of_vfprintf:
  1428                           
  1429                           	psect	text3
  1430     1348                     __ptext3:	
  1431 ;; *************** function _vfpfcnvrt *****************
  1432 ;; Defined at:
  1433 ;;		line 1177 in file "C:\Program Files\Microchip\xc8\v2.46\pic\sources\c99\common\doprnt.c"
  1434 ;; Parameters:    Size  Location     Type
  1435 ;;  fp              1    wreg     PTR struct _IO_FILE
  1436 ;;		 -> sprintf@f(11), 
  1437 ;;  fmt             1   60[BANK1 ] PTR PTR unsigned char 
  1438 ;;		 -> vfprintf@cfmt(1), 
  1439 ;;  ap              1   61[BANK1 ] PTR PTR void 
  1440 ;;		 -> sprintf@ap(1), 
  1441 ;; Auto vars:     Size  Location     Type
  1442 ;;  fp              1   68[BANK1 ] PTR struct _IO_FILE
  1443 ;;		 -> sprintf@f(11), 
  1444 ;;  convarg         4   64[BANK1 ] struct .
  1445 ;;  cp              1   70[BANK1 ] PTR unsigned char 
  1446 ;;		 -> STR_1(18), 
  1447 ;;  c               1   69[BANK1 ] unsigned char 
  1448 ;;  done            1    0        _Bool 
  1449 ;; Return value:  Size  Location     Type
  1450 ;;                  1    wreg      void 
  1451 ;; Registers used:
  1452 ;;		wreg, fsr0l, fsr0h, status,2, status,0, btemp+1, pclath, cstack
  1453 ;; Tracked objects:
  1454 ;;		On entry : 0/0
  1455 ;;		On exit  : 0/0
  1456 ;;		Unchanged: 0/0
  1457 ;; Data sizes:     COMMON   BANK0   BANK1   BANK3   BANK2
  1458 ;;      Params:         0       0       2       0       0
  1459 ;;      Locals:         0       0       7       0       0
  1460 ;;      Temps:          0       0       2       0       0
  1461 ;;      Totals:         0       0      11       0       0
  1462 ;;Total ram usage:       11 bytes
  1463 ;; Hardware stack levels used: 1
  1464 ;; Hardware stack levels required when called: 8
  1465 ;; This function calls:
  1466 ;;		_efgtoa
  1467 ;;		_fputc
  1468 ;;		_read_prec_or_width
  1469 ;; This function is called by:
  1470 ;;		_vfprintf
  1471 ;; This function uses a non-reentrant model
  1472 ;;
  1473                           
  1474     1348                     _vfpfcnvrt:	
  1475                           ;psect for function _vfpfcnvrt
  1476                           
  1477                           
  1478                           ;incstack = 0
  1479 ;; hardware stack exceeded
  1480                           ; Regs used in _vfpfcnvrt: [wreg-fsr0h+status,2+status,0+btemp+1+pclath+cstack]
  1481                           ;vfpfcnvrt@fp stored from wreg
  1482     1348  1683               	bsf	3,5	;RP0=1, select bank1
  1483     1349  1303               	bcf	3,6	;RP1=0, select bank1
  1484     134A  00E4               	movwf	vfpfcnvrt@fp^(0+128)
  1485     134B                     l2884:
  1486                           
  1487                           ;C:\Program Files\Microchip\xc8\v2.46\pic\sources\c99\common\doprnt.c: 1177: vfpfcnvrt(F
      +                          ILE *fp, char *fmt[], va_list ap);C:\Program Files\Microchip\xc8\v2.46\pic\sources\c99\c
      +                          ommon\doprnt.c: 1178: {;C:\Program Files\Microchip\xc8\v2.46\pic\sources\c99\common\dopr
      +                          nt.c: 1179:     char c, *cp;;C:\Program Files\Microchip\xc8\v2.46\pic\sources\c99\common
      +                          \doprnt.c: 1180:     _Bool done;;C:\Program Files\Microchip\xc8\v2.46\pic\sources\c99\co
      +                          mmon\doprnt.c: 1188:  } convarg;;C:\Program Files\Microchip\xc8\v2.46\pic\sources\c99\co
      +                          mmon\doprnt.c: 1201:     if ((*fmt)[0] == '%') {
  1488     134B  085C               	movf	vfpfcnvrt@fmt^(0+128),w
  1489     134C  0084               	movwf	4
  1490     134D  1383               	bcf	3,7	;select IRP bank0
  1491     134E  0800               	movf	0,w
  1492     134F  0084               	movwf	4
  1493     1350  160A  158A  200A  160A  118A  	fcall	stringdir
  1494     1355  3A25               	xorlw	37
  1495     1356  1D03               	skipz
  1496     1357  2B59               	goto	u4391
  1497     1358  2B5A               	goto	u4390
  1498     1359                     u4391:
  1499     1359  2C29               	goto	l2936
  1500     135A                     u4390:
  1501     135A                     l2886:
  1502                           
  1503                           ;C:\Program Files\Microchip\xc8\v2.46\pic\sources\c99\common\doprnt.c: 1202:         ++*
      +                          fmt;
  1504     135A  3001               	movlw	1
  1505     135B  00FF               	movwf	btemp+1
  1506     135C  085C               	movf	vfpfcnvrt@fmt^(0+128),w
  1507     135D  0084               	movwf	4
  1508     135E  087F               	movf	btemp+1,w
  1509     135F  0780               	addwf	0,f
  1510     1360                     l2888:
  1511                           
  1512                           ;C:\Program Files\Microchip\xc8\v2.46\pic\sources\c99\common\doprnt.c: 1204:         fla
      +                          gs = width = 0;
  1513     1360  01F9               	clrf	_width
  1514     1361  01FA               	clrf	_width+1
  1515     1362  1003               	clrc
  1516     1363  3000               	movlw	0
  1517     1364  1803               	btfsc	3,0
  1518     1365  3001               	movlw	1
  1519     1366  00FD               	movwf	_flags
  1520     1367                     l2890:
  1521                           
  1522                           ;C:\Program Files\Microchip\xc8\v2.46\pic\sources\c99\common\doprnt.c: 1205:         pre
      +                          c = -1;
  1523     1367  30FF               	movlw	255
  1524     1368  00FB               	movwf	_prec
  1525     1369  30FF               	movlw	255
  1526     136A  00FC               	movwf	_prec+1
  1527     136B                     l2892:
  1528                           
  1529                           ;C:\Program Files\Microchip\xc8\v2.46\pic\sources\c99\common\doprnt.c: 1265:         if 
      +                          ((*fmt)[0] == '.') {
  1530     136B  085C               	movf	vfpfcnvrt@fmt^(0+128),w
  1531     136C  0084               	movwf	4
  1532     136D  0800               	movf	0,w
  1533     136E  0084               	movwf	4
  1534     136F  160A  158A  200A  160A  118A  	fcall	stringdir
  1535     1374  3A2E               	xorlw	46
  1536     1375  1D03               	skipz
  1537     1376  2B78               	goto	u4401
  1538     1377  2B79               	goto	u4400
  1539     1378                     u4401:
  1540     1378  2B91               	goto	l2898
  1541     1379                     u4400:
  1542     1379                     l2894:
  1543                           
  1544                           ;C:\Program Files\Microchip\xc8\v2.46\pic\sources\c99\common\doprnt.c: 1266:            
      +                           ++*fmt;
  1545     1379  3001               	movlw	1
  1546     137A  00FF               	movwf	btemp+1
  1547     137B  085C               	movf	vfpfcnvrt@fmt^(0+128),w
  1548     137C  0084               	movwf	4
  1549     137D  087F               	movf	btemp+1,w
  1550     137E  0780               	addwf	0,f
  1551     137F                     l2896:
  1552                           
  1553                           ;C:\Program Files\Microchip\xc8\v2.46\pic\sources\c99\common\doprnt.c: 1267:    prec = r
      +                          ead_prec_or_width(fmt, ap);
  1554     137F  085D               	movf	vfpfcnvrt@ap^(0+128),w
  1555     1380  1283               	bcf	3,5	;RP0=0, select bank0
  1556     1381  1303               	bcf	3,6	;RP1=0, select bank0
  1557     1382  00A6               	movwf	read_prec_or_width@ap
  1558     1383  1683               	bsf	3,5	;RP0=1, select bank1
  1559     1384  1303               	bcf	3,6	;RP1=0, select bank1
  1560     1385  085C               	movf	vfpfcnvrt@fmt^(0+128),w
  1561     1386  160A  118A  2039  160A  118A  	fcall	_read_prec_or_width
  1562     138B  1283               	bcf	3,5	;RP0=0, select bank0
  1563     138C  1303               	bcf	3,6	;RP1=0, select bank0
  1564     138D  0827               	movf	?_read_prec_or_width+1,w
  1565     138E  00FC               	movwf	_prec+1
  1566     138F  0826               	movf	?_read_prec_or_width,w
  1567     1390  00FB               	movwf	_prec
  1568     1391                     l2898:
  1569                           
  1570                           ;C:\Program Files\Microchip\xc8\v2.46\pic\sources\c99\common\doprnt.c: 1689:   cp = *fmt
      +                          ;
  1571     1391  1683               	bsf	3,5	;RP0=1, select bank1
  1572     1392  1303               	bcf	3,6	;RP1=0, select bank1
  1573     1393  085C               	movf	vfpfcnvrt@fmt^(0+128),w
  1574     1394  0084               	movwf	4
  1575     1395  1383               	bcf	3,7	;select IRP bank0
  1576     1396  0800               	movf	0,w
  1577     1397  00E6               	movwf	vfpfcnvrt@cp^(0+128)
  1578     1398                     l2900:
  1579                           
  1580                           ;C:\Program Files\Microchip\xc8\v2.46\pic\sources\c99\common\doprnt.c: 1690:   c = *cp;
  1581     1398  0866               	movf	vfpfcnvrt@cp^(0+128),w
  1582     1399  0084               	movwf	4
  1583     139A  160A  158A  200A  160A  118A  	fcall	stringdir
  1584     139F  00E5               	movwf	vfpfcnvrt@c^(0+128)
  1585                           
  1586                           ;C:\Program Files\Microchip\xc8\v2.46\pic\sources\c99\common\doprnt.c: 1691:   switch(c)
      +                           {
  1587     13A0  2BAB               	goto	l2910
  1588     13A1                     l2902:
  1589                           
  1590                           ;C:\Program Files\Microchip\xc8\v2.46\pic\sources\c99\common\doprnt.c: 1695:     cp++;
  1591     13A1  3001               	movlw	1
  1592     13A2  00FF               	movwf	btemp+1
  1593     13A3  087F               	movf	btemp+1,w
  1594     13A4  07E6               	addwf	vfpfcnvrt@cp^(0+128),f
  1595                           
  1596                           ;C:\Program Files\Microchip\xc8\v2.46\pic\sources\c99\common\doprnt.c: 1696:     break;
  1597     13A5  2BB6               	goto	l2912
  1598     13A6                     l2904:
  1599                           
  1600                           ;C:\Program Files\Microchip\xc8\v2.46\pic\sources\c99\common\doprnt.c: 1721:     c = 'l'
      +                          ;
  1601     13A6  306C               	movlw	108
  1602     13A7  00E5               	movwf	vfpfcnvrt@c^(0+128)
  1603                           
  1604                           ;C:\Program Files\Microchip\xc8\v2.46\pic\sources\c99\common\doprnt.c: 1722:     break;
  1605     13A8  2BB6               	goto	l2912
  1606     13A9                     l2906:
  1607                           
  1608                           ;C:\Program Files\Microchip\xc8\v2.46\pic\sources\c99\common\doprnt.c: 1724:     c = 0;
  1609     13A9  01E5               	clrf	vfpfcnvrt@c^(0+128)
  1610                           
  1611                           ;C:\Program Files\Microchip\xc8\v2.46\pic\sources\c99\common\doprnt.c: 1725:     break;
  1612     13AA  2BB6               	goto	l2912
  1613     13AB                     l2910:
  1614     13AB  0865               	movf	vfpfcnvrt@c^(0+128),w
  1615                           
  1616                           ; Switch size 1, requested type "simple"
  1617                           ; Number of cases is 3, Range of values is 76 to 108
  1618                           ; switch strategies available:
  1619                           ; Name         Instructions Cycles
  1620                           ; simple_byte           10     6 (average)
  1621                           ; direct_byte          110    11 (fixed)
  1622                           ; jumptable            263     9 (fixed)
  1623                           ;	Chosen strategy is simple_byte
  1624     13AC  3A4C               	xorlw	76	; case 76
  1625     13AD  1903               	skipnz
  1626     13AE  2BA1               	goto	l2902
  1627     13AF  3A2A               	xorlw	42	; case 102
  1628     13B0  1903               	skipnz
  1629     13B1  2BA6               	goto	l2904
  1630     13B2  3A0A               	xorlw	10	; case 108
  1631     13B3  1903               	skipnz
  1632     13B4  2BA1               	goto	l2902
  1633     13B5  2BA9               	goto	l2906
  1634     13B6                     l2912:
  1635     13B6  0866               	movf	vfpfcnvrt@cp^(0+128),w
  1636     13B7  0084               	movwf	4
  1637     13B8  160A  158A  200A  160A  118A  	fcall	stringdir
  1638     13BD  3A66               	xorlw	102
  1639     13BE  1D03               	skipz
  1640     13BF  2BC1               	goto	u4411
  1641     13C0  2BC2               	goto	u4410
  1642     13C1                     u4411:
  1643     13C1  2C1F               	goto	l2932
  1644     13C2                     u4410:
  1645     13C2  2BEF               	goto	l2920
  1646     13C3                     l2914:
  1647                           
  1648                           ;C:\Program Files\Microchip\xc8\v2.46\pic\sources\c99\common\doprnt.c: 1756:      convar
      +                          g.f = (long double)(*(double *)__va_arg(*(double **)ap, (double)0));
  1649     13C3  085D               	movf	vfpfcnvrt@ap^(0+128),w
  1650     13C4  0084               	movwf	4
  1651     13C5  1783               	bsf	3,7	;select IRP bank2
  1652     13C6  0800               	movf	0,w
  1653     13C7  00FF               	movwf	btemp+1
  1654     13C8  3004               	movlw	4
  1655     13C9  0780               	addwf	0,f
  1656     13CA  087F               	movf	btemp+1,w
  1657     13CB  0084               	movwf	4
  1658     13CC  1383               	bcf	3,7	;select IRP bank0
  1659     13CD  0800               	movf	0,w
  1660     13CE  00E0               	movwf	vfpfcnvrt@convarg^(0+128)
  1661     13CF  0A84               	incf	4,f
  1662     13D0  0800               	movf	0,w
  1663     13D1  00E1               	movwf	(vfpfcnvrt@convarg+1)^(0+128)
  1664     13D2  0A84               	incf	4,f
  1665     13D3  0800               	movf	0,w
  1666     13D4  00E2               	movwf	(vfpfcnvrt@convarg+2)^(0+128)
  1667     13D5  0A84               	incf	4,f
  1668     13D6  0800               	movf	0,w
  1669     13D7  00E3               	movwf	(vfpfcnvrt@convarg+3)^(0+128)
  1670                           
  1671                           ;C:\Program Files\Microchip\xc8\v2.46\pic\sources\c99\common\doprnt.c: 1757:      break;
  1672     13D8  2BF7               	goto	l2922
  1673     13D9                     l2916:
  1674                           
  1675                           ;C:\Program Files\Microchip\xc8\v2.46\pic\sources\c99\common\doprnt.c: 1759:      convar
      +                          g.f = (long double)(*(long double *)__va_arg(*(long double **)ap, (long double)0));
  1676     13D9  085D               	movf	vfpfcnvrt@ap^(0+128),w
  1677     13DA  0084               	movwf	4
  1678     13DB  1783               	bsf	3,7	;select IRP bank2
  1679     13DC  0800               	movf	0,w
  1680     13DD  00FF               	movwf	btemp+1
  1681     13DE  3004               	movlw	4
  1682     13DF  0780               	addwf	0,f
  1683     13E0  087F               	movf	btemp+1,w
  1684     13E1  0084               	movwf	4
  1685     13E2  1383               	bcf	3,7	;select IRP bank0
  1686     13E3  0800               	movf	0,w
  1687     13E4  00E0               	movwf	vfpfcnvrt@convarg^(0+128)
  1688     13E5  0A84               	incf	4,f
  1689     13E6  0800               	movf	0,w
  1690     13E7  00E1               	movwf	(vfpfcnvrt@convarg+1)^(0+128)
  1691     13E8  0A84               	incf	4,f
  1692     13E9  0800               	movf	0,w
  1693     13EA  00E2               	movwf	(vfpfcnvrt@convarg+2)^(0+128)
  1694     13EB  0A84               	incf	4,f
  1695     13EC  0800               	movf	0,w
  1696     13ED  00E3               	movwf	(vfpfcnvrt@convarg+3)^(0+128)
  1697                           
  1698                           ;C:\Program Files\Microchip\xc8\v2.46\pic\sources\c99\common\doprnt.c: 1760:      break;
  1699     13EE  2BF7               	goto	l2922
  1700     13EF                     l2920:
  1701     13EF  0865               	movf	vfpfcnvrt@c^(0+128),w
  1702                           
  1703                           ; Switch size 1, requested type "simple"
  1704                           ; Number of cases is 2, Range of values is 76 to 108
  1705                           ; switch strategies available:
  1706                           ; Name         Instructions Cycles
  1707                           ; simple_byte            7     4 (average)
  1708                           ; direct_byte          110    11 (fixed)
  1709                           ; jumptable            263     9 (fixed)
  1710                           ;	Chosen strategy is simple_byte
  1711     13F0  3A4C               	xorlw	76	; case 76
  1712     13F1  1903               	skipnz
  1713     13F2  2BD9               	goto	l2916
  1714     13F3  3A20               	xorlw	32	; case 108
  1715     13F4  1903               	skipnz
  1716     13F5  2BC3               	goto	l2914
  1717     13F6  2BF7               	goto	l2922
  1718     13F7                     l2922:
  1719                           
  1720                           ;C:\Program Files\Microchip\xc8\v2.46\pic\sources\c99\common\doprnt.c: 1762:    *fmt = c
      +                          p+1;
  1721     13F7  085C               	movf	vfpfcnvrt@fmt^(0+128),w
  1722     13F8  0084               	movwf	4
  1723     13F9  0866               	movf	vfpfcnvrt@cp^(0+128),w
  1724     13FA  3E01               	addlw	1
  1725     13FB  0080               	movwf	0
  1726                           
  1727                           ;C:\Program Files\Microchip\xc8\v2.46\pic\sources\c99\common\doprnt.c: 1763:    switch (
      +                          *cp) {
  1728     13FC  2C14               	goto	l2930
  1729     13FD                     l2924:
  1730                           
  1731                           ;C:\Program Files\Microchip\xc8\v2.46\pic\sources\c99\common\doprnt.c: 1790:      return
      +                           (void) efgtoa(fp, convarg.f, *cp);;	Return value of _vfpfcnvrt is never used
  1732     13FD  0863               	movf	(vfpfcnvrt@convarg+3)^(0+128),w
  1733     13FE  00AD               	movwf	(efgtoa@f+3)^(0+128)
  1734     13FF  0862               	movf	(vfpfcnvrt@convarg+2)^(0+128),w
  1735     1400  00AC               	movwf	(efgtoa@f+2)^(0+128)
  1736     1401  0861               	movf	(vfpfcnvrt@convarg+1)^(0+128),w
  1737     1402  00AB               	movwf	(efgtoa@f+1)^(0+128)
  1738     1403  0860               	movf	vfpfcnvrt@convarg^(0+128),w
  1739     1404  00AA               	movwf	efgtoa@f^(0+128)
  1740     1405  0866               	movf	vfpfcnvrt@cp^(0+128),w
  1741     1406  0084               	movwf	4
  1742     1407  160A  158A  200A  160A  118A  	fcall	stringdir
  1743     140C  00AE               	movwf	efgtoa@c^(0+128)
  1744     140D  0864               	movf	vfpfcnvrt@fp^(0+128),w
  1745     140E  160A  118A  244B  160A  118A  	fcall	_efgtoa
  1746     1413  2C4A               	goto	l729
  1747     1414                     l2930:
  1748     1414  0866               	movf	vfpfcnvrt@cp^(0+128),w
  1749     1415  0084               	movwf	4
  1750     1416  160A  158A  200A  160A  118A  	fcall	stringdir
  1751                           
  1752                           ; Switch size 1, requested type "simple"
  1753                           ; Number of cases is 1, Range of values is 102 to 102
  1754                           ; switch strategies available:
  1755                           ; Name         Instructions Cycles
  1756                           ; simple_byte            4     3 (average)
  1757                           ; direct_byte           14    11 (fixed)
  1758                           ; jumptable            263     9 (fixed)
  1759                           ;	Chosen strategy is simple_byte
  1760     141B  3A66               	xorlw	102	; case 102
  1761     141C  1903               	skipnz
  1762     141D  2BFD               	goto	l2924
  1763     141E  2C1F               	goto	l2932
  1764     141F                     l2932:
  1765                           
  1766                           ;C:\Program Files\Microchip\xc8\v2.46\pic\sources\c99\common\doprnt.c: 1806:         ++*
      +                          fmt;
  1767     141F  3001               	movlw	1
  1768     1420  00FF               	movwf	btemp+1
  1769     1421  1683               	bsf	3,5	;RP0=1, select bank1
  1770     1422  1303               	bcf	3,6	;RP1=0, select bank1
  1771     1423  085C               	movf	vfpfcnvrt@fmt^(0+128),w
  1772     1424  0084               	movwf	4
  1773     1425  087F               	movf	btemp+1,w
  1774     1426  1383               	bcf	3,7	;select IRP bank0
  1775     1427  0780               	addwf	0,f
  1776     1428  2C4A               	goto	l729
  1777     1429                     l2936:
  1778                           
  1779                           ;C:\Program Files\Microchip\xc8\v2.46\pic\sources\c99\common\doprnt.c: 1811:     fputc((
      +                          int)(*fmt)[0], fp);
  1780     1429  085C               	movf	vfpfcnvrt@fmt^(0+128),w
  1781     142A  0084               	movwf	4
  1782     142B  0800               	movf	0,w
  1783     142C  0084               	movwf	4
  1784     142D  160A  158A  200A  160A  118A  	fcall	stringdir
  1785     1432  00DE               	movwf	??_vfpfcnvrt^(0+128)
  1786     1433  01DF               	clrf	(??_vfpfcnvrt^(0+128)+1)
  1787     1434  085E               	movf	??_vfpfcnvrt^(0+128),w
  1788     1435  1283               	bcf	3,5	;RP0=0, select bank0
  1789     1436  1303               	bcf	3,6	;RP1=0, select bank0
  1790     1437  00A0               	movwf	fputc@c
  1791     1438  1683               	bsf	3,5	;RP0=1, select bank1
  1792     1439  1303               	bcf	3,6	;RP1=0, select bank1
  1793     143A  085F               	movf	(??_vfpfcnvrt+1)^(0+128),w
  1794     143B  1283               	bcf	3,5	;RP0=0, select bank0
  1795     143C  1303               	bcf	3,6	;RP1=0, select bank0
  1796     143D  00A1               	movwf	fputc@c+1
  1797     143E  1683               	bsf	3,5	;RP0=1, select bank1
  1798     143F  1303               	bcf	3,6	;RP1=0, select bank1
  1799     1440  0864               	movf	vfpfcnvrt@fp^(0+128),w
  1800     1441  1283               	bcf	3,5	;RP0=0, select bank0
  1801     1442  1303               	bcf	3,6	;RP1=0, select bank0
  1802     1443  00A2               	movwf	fputc@fp
  1803     1444  160A  158A  27A6  160A  118A  	fcall	_fputc
  1804     1449  2C1F               	goto	l2932
  1805     144A                     l729:
  1806     144A  0008               	return
  1807     144B                     __end_of_vfpfcnvrt:
  1808                           
  1809                           	psect	text4
  1810     1039                     __ptext4:	
  1811 ;; *************** function _read_prec_or_width *****************
  1812 ;; Defined at:
  1813 ;;		line 1158 in file "C:\Program Files\Microchip\xc8\v2.46\pic\sources\c99\common\doprnt.c"
  1814 ;; Parameters:    Size  Location     Type
  1815 ;;  fmt             1    wreg     PTR PTR const unsigned c
  1816 ;;		 -> vfprintf@cfmt(1), 
  1817 ;;  ap              1    6[BANK0 ] PTR PTR void [1]
  1818 ;;		 -> sprintf@ap(1), 
  1819 ;; Auto vars:     Size  Location     Type
  1820 ;;  fmt             1   11[BANK0 ] PTR PTR const unsigned c
  1821 ;;		 -> vfprintf@cfmt(1), 
  1822 ;;  c               1    8[BANK0 ] unsigned char 
  1823 ;;  n               2    9[BANK0 ] int 
  1824 ;; Return value:  Size  Location     Type
  1825 ;;                  2    6[BANK0 ] int 
  1826 ;; Registers used:
  1827 ;;		wreg, fsr0l, fsr0h, status,2, status,0, btemp+1, pclath, cstack
  1828 ;; Tracked objects:
  1829 ;;		On entry : 0/0
  1830 ;;		On exit  : 0/0
  1831 ;;		Unchanged: 0/0
  1832 ;; Data sizes:     COMMON   BANK0   BANK1   BANK3   BANK2
  1833 ;;      Params:         0       2       0       0       0
  1834 ;;      Locals:         0       4       0       0       0
  1835 ;;      Temps:          0       0       0       0       0
  1836 ;;      Totals:         0       6       0       0       0
  1837 ;;Total ram usage:        6 bytes
  1838 ;; Hardware stack levels used: 1
  1839 ;; Hardware stack levels required when called: 4
  1840 ;; This function calls:
  1841 ;;		___wmul
  1842 ;; This function is called by:
  1843 ;;		_vfpfcnvrt
  1844 ;; This function uses a non-reentrant model
  1845 ;;
  1846                           
  1847     1039                     _read_prec_or_width:	
  1848                           ;psect for function _read_prec_or_width
  1849                           
  1850                           
  1851                           ;incstack = 0
  1852 ;; using string table level
  1853                           ; Regs used in _read_prec_or_width: [wreg-fsr0h+status,2+status,0+btemp+1+pclath+cstack]
  1854                           ;read_prec_or_width@fmt stored from wreg
  1855     1039  1283               	bcf	3,5	;RP0=0, select bank0
  1856     103A  1303               	bcf	3,6	;RP1=0, select bank0
  1857     103B  00AB               	movwf	read_prec_or_width@fmt
  1858     103C                     l2868:
  1859                           
  1860                           ;C:\Program Files\Microchip\xc8\v2.46\pic\sources\c99\common\doprnt.c: 1159:     int n =
      +                           0;
  1861     103C  01A9               	clrf	read_prec_or_width@n
  1862     103D  01AA               	clrf	read_prec_or_width@n+1
  1863     103E                     l2870:
  1864                           
  1865                           ;C:\Program Files\Microchip\xc8\v2.46\pic\sources\c99\common\doprnt.c: 1160:     if ((*f
      +                          mt)[0] == '*') {
  1866     103E  082B               	movf	read_prec_or_width@fmt,w
  1867     103F  0084               	movwf	4
  1868     1040  1383               	bcf	3,7	;select IRP bank0
  1869     1041  0800               	movf	0,w
  1870     1042  0084               	movwf	4
  1871     1043  160A  158A  200A  160A  118A  	fcall	stringdir
  1872     1048  3A2A               	xorlw	42
  1873     1049  1D03               	skipz
  1874     104A  284C               	goto	u4371
  1875     104B  284D               	goto	u4370
  1876     104C                     u4371:
  1877     104C  2881               	goto	l2878
  1878     104D                     u4370:
  1879     104D                     l2872:
  1880                           
  1881                           ;C:\Program Files\Microchip\xc8\v2.46\pic\sources\c99\common\doprnt.c: 1161:         ++*
      +                          fmt;
  1882     104D  3001               	movlw	1
  1883     104E  00FF               	movwf	btemp+1
  1884     104F  082B               	movf	read_prec_or_width@fmt,w
  1885     1050  0084               	movwf	4
  1886     1051  087F               	movf	btemp+1,w
  1887     1052  0780               	addwf	0,f
  1888                           
  1889                           ;C:\Program Files\Microchip\xc8\v2.46\pic\sources\c99\common\doprnt.c: 1162:         n =
      +                           (*(int *)__va_arg(*(int **)*ap, (int)0));
  1890     1053  0826               	movf	read_prec_or_width@ap,w
  1891     1054  0084               	movwf	4
  1892     1055  1783               	bsf	3,7	;select IRP bank2
  1893     1056  0800               	movf	0,w
  1894     1057  00FF               	movwf	btemp+1
  1895     1058  3002               	movlw	2
  1896     1059  0780               	addwf	0,f
  1897     105A  087F               	movf	btemp+1,w
  1898     105B  0084               	movwf	4
  1899     105C  1383               	bcf	3,7	;select IRP bank0
  1900     105D  0800               	movf	0,w
  1901     105E  00A9               	movwf	read_prec_or_width@n
  1902     105F  0A84               	incf	4,f
  1903     1060  0800               	movf	0,w
  1904     1061  00AA               	movwf	read_prec_or_width@n+1
  1905                           
  1906                           ;C:\Program Files\Microchip\xc8\v2.46\pic\sources\c99\common\doprnt.c: 1163:     } else 
      +                          {
  1907     1062  2892               	goto	l2880
  1908     1063                     l2874:
  1909                           
  1910                           ;C:\Program Files\Microchip\xc8\v2.46\pic\sources\c99\common\doprnt.c: 1166:            
      +                           n = n * 10 + c;
  1911     1063  082A               	movf	read_prec_or_width@n+1,w
  1912     1064  00A1               	movwf	___wmul@multiplier+1
  1913     1065  0829               	movf	read_prec_or_width@n,w
  1914     1066  00A0               	movwf	___wmul@multiplier
  1915     1067  300A               	movlw	10
  1916     1068  00A2               	movwf	___wmul@multiplicand
  1917     1069  3000               	movlw	0
  1918     106A  00A3               	movwf	___wmul@multiplicand+1
  1919     106B  160A  158A  2676  160A  118A  	fcall	___wmul
  1920     1070  1283               	bcf	3,5	;RP0=0, select bank0
  1921     1071  1303               	bcf	3,6	;RP1=0, select bank0
  1922     1072  0828               	movf	read_prec_or_width@c,w
  1923     1073  0720               	addwf	?___wmul,w
  1924     1074  00A9               	movwf	read_prec_or_width@n
  1925     1075  3000               	movlw	0
  1926     1076  1803               	skipnc
  1927     1077  3001               	movlw	1
  1928     1078  0721               	addwf	?___wmul+1,w
  1929     1079  00AA               	movwf	read_prec_or_width@n+1
  1930     107A                     l2876:
  1931                           
  1932                           ;C:\Program Files\Microchip\xc8\v2.46\pic\sources\c99\common\doprnt.c: 1167:            
      +                           ++*fmt;
  1933     107A  3001               	movlw	1
  1934     107B  00FF               	movwf	btemp+1
  1935     107C  082B               	movf	read_prec_or_width@fmt,w
  1936     107D  0084               	movwf	4
  1937     107E  087F               	movf	btemp+1,w
  1938     107F  1383               	bcf	3,7	;select IRP bank0
  1939     1080  0780               	addwf	0,f
  1940     1081                     l2878:
  1941                           
  1942                           ;C:\Program Files\Microchip\xc8\v2.46\pic\sources\c99\common\doprnt.c: 1165:         whi
      +                          le ((c = ((unsigned)(*fmt)[0]) - '0') < 10) {
  1943     1081  082B               	movf	read_prec_or_width@fmt,w
  1944     1082  0084               	movwf	4
  1945     1083  0800               	movf	0,w
  1946     1084  0084               	movwf	4
  1947     1085  160A  158A  200A  160A  118A  	fcall	stringdir
  1948     108A  3ED0               	addlw	208
  1949     108B  00A8               	movwf	read_prec_or_width@c
  1950     108C  300A               	movlw	10
  1951     108D  0228               	subwf	read_prec_or_width@c,w
  1952     108E  1C03               	skipc
  1953     108F  2891               	goto	u4381
  1954     1090  2892               	goto	u4380
  1955     1091                     u4381:
  1956     1091  2863               	goto	l2874
  1957     1092                     u4380:
  1958     1092                     l2880:
  1959                           
  1960                           ;C:\Program Files\Microchip\xc8\v2.46\pic\sources\c99\common\doprnt.c: 1170:     return 
      +                          n;
  1961     1092  082A               	movf	read_prec_or_width@n+1,w
  1962     1093  00A7               	movwf	?_read_prec_or_width+1
  1963     1094  0829               	movf	read_prec_or_width@n,w
  1964     1095  00A6               	movwf	?_read_prec_or_width
  1965     1096                     l709:
  1966     1096  0008               	return
  1967     1097                     __end_of_read_prec_or_width:
  1968                           
  1969                           	psect	text5
  1970     1E76                     __ptext5:	
  1971 ;; *************** function ___wmul *****************
  1972 ;; Defined at:
  1973 ;;		line 15 in file "C:\Program Files\Microchip\xc8\v2.46\pic\sources\c99\common\Umul16.c"
  1974 ;; Parameters:    Size  Location     Type
  1975 ;;  multiplier      2    0[BANK0 ] unsigned int 
  1976 ;;  multiplicand    2    2[BANK0 ] unsigned int 
  1977 ;; Auto vars:     Size  Location     Type
  1978 ;;  product         2    4[BANK0 ] unsigned int 
  1979 ;; Return value:  Size  Location     Type
  1980 ;;                  2    0[BANK0 ] unsigned int 
  1981 ;; Registers used:
  1982 ;;		wreg, status,2, status,0
  1983 ;; Tracked objects:
  1984 ;;		On entry : 0/0
  1985 ;;		On exit  : 0/0
  1986 ;;		Unchanged: 0/0
  1987 ;; Data sizes:     COMMON   BANK0   BANK1   BANK3   BANK2
  1988 ;;      Params:         0       4       0       0       0
  1989 ;;      Locals:         0       2       0       0       0
  1990 ;;      Temps:          0       0       0       0       0
  1991 ;;      Totals:         0       6       0       0       0
  1992 ;;Total ram usage:        6 bytes
  1993 ;; Hardware stack levels used: 1
  1994 ;; Hardware stack levels required when called: 3
  1995 ;; This function calls:
  1996 ;;		Nothing
  1997 ;; This function is called by:
  1998 ;;		_read_prec_or_width
  1999 ;; This function uses a non-reentrant model
  2000 ;;
  2001                           
  2002     1E76                     ___wmul:	
  2003                           ;psect for function ___wmul
  2004                           
  2005     1E76                     l2186:	
  2006                           ;incstack = 0
  2007                           ; Regs used in ___wmul: [wreg+status,2+status,0]
  2008                           
  2009     1E76  1283               	bcf	3,5	;RP0=0, select bank0
  2010     1E77  1303               	bcf	3,6	;RP1=0, select bank0
  2011     1E78  01A4               	clrf	___wmul@product
  2012     1E79  01A5               	clrf	___wmul@product+1
  2013     1E7A                     l2188:
  2014     1E7A  1C20               	btfss	___wmul@multiplier,0
  2015     1E7B  2E7D               	goto	u2861
  2016     1E7C  2E7E               	goto	u2860
  2017     1E7D                     u2861:
  2018     1E7D  2E84               	goto	l155
  2019     1E7E                     u2860:
  2020     1E7E                     l2190:
  2021     1E7E  0822               	movf	___wmul@multiplicand,w
  2022     1E7F  07A4               	addwf	___wmul@product,f
  2023     1E80  1803               	skipnc
  2024     1E81  0AA5               	incf	___wmul@product+1,f
  2025     1E82  0823               	movf	___wmul@multiplicand+1,w
  2026     1E83  07A5               	addwf	___wmul@product+1,f
  2027     1E84                     l155:
  2028     1E84  3001               	movlw	1
  2029     1E85                     u2875:
  2030     1E85  1003               	clrc
  2031     1E86  0DA2               	rlf	___wmul@multiplicand,f
  2032     1E87  0DA3               	rlf	___wmul@multiplicand+1,f
  2033     1E88  3EFF               	addlw	-1
  2034     1E89  1D03               	skipz
  2035     1E8A  2E85               	goto	u2875
  2036     1E8B                     l2192:
  2037     1E8B  3001               	movlw	1
  2038     1E8C                     u2885:
  2039     1E8C  1003               	clrc
  2040     1E8D  0CA1               	rrf	___wmul@multiplier+1,f
  2041     1E8E  0CA0               	rrf	___wmul@multiplier,f
  2042     1E8F  3EFF               	addlw	-1
  2043     1E90  1D03               	skipz
  2044     1E91  2E8C               	goto	u2885
  2045     1E92                     l2194:
  2046     1E92  0820               	movf	___wmul@multiplier,w
  2047     1E93  0421               	iorwf	___wmul@multiplier+1,w
  2048     1E94  1D03               	btfss	3,2
  2049     1E95  2E97               	goto	u2891
  2050     1E96  2E98               	goto	u2890
  2051     1E97                     u2891:
  2052     1E97  2E7A               	goto	l2188
  2053     1E98                     u2890:
  2054     1E98                     l2196:
  2055     1E98  0825               	movf	___wmul@product+1,w
  2056     1E99  00A1               	movwf	?___wmul+1
  2057     1E9A  0824               	movf	___wmul@product,w
  2058     1E9B  00A0               	movwf	?___wmul
  2059     1E9C                     l157:
  2060     1E9C  0008               	return
  2061     1E9D                     __end_of___wmul:
  2062                           
  2063                           	psect	text6
  2064     144B                     __ptext6:	
  2065 ;; *************** function _efgtoa *****************
  2066 ;; Defined at:
  2067 ;;		line 587 in file "C:\Program Files\Microchip\xc8\v2.46\pic\sources\c99\common\doprnt.c"
  2068 ;; Parameters:    Size  Location     Type
  2069 ;;  fp              1    wreg     PTR struct _IO_FILE
  2070 ;;		 -> sprintf@f(11), 
  2071 ;;  f               4   10[BANK1 ] PTR struct _IO_FILE
  2072 ;;  c               1   14[BANK1 ] unsigned char 
  2073 ;; Auto vars:     Size  Location     Type
  2074 ;;  fp              1   30[BANK1 ] PTR struct _IO_FILE
  2075 ;;		 -> sprintf@f(11), 
  2076 ;;  u               4   56[BANK1 ] struct flui
  2077 ;;  g               4   52[BANK1 ] struct flui
  2078 ;;  l               4   45[BANK1 ] struct flui
  2079 ;;  h               4   41[BANK1 ] struct flui
  2080 ;;  ou              4   35[BANK1 ] struct flui
  2081 ;;  n               2   50[BANK1 ] int 
  2082 ;;  i               2   39[BANK1 ] int 
  2083 ;;  w               2   33[BANK1 ] int 
  2084 ;;  e               2   31[BANK1 ] int 
  2085 ;;  m               2   28[BANK1 ] int 
  2086 ;;  d               2   26[BANK1 ] int 
  2087 ;;  t               2   19[BANK1 ] int 
  2088 ;;  p               2   17[BANK1 ] int 
  2089 ;;  ne              2   15[BANK1 ] int 
  2090 ;;  sign            1   49[BANK1 ] unsigned char 
  2091 ;;  nmode           1   25[BANK1 ] unsigned char 
  2092 ;;  mode            1   24[BANK1 ] unsigned char 
  2093 ;;  pp              1   23[BANK1 ] unsigned char 
  2094 ;;  esign           1    0        unsigned char 
  2095 ;; Return value:  Size  Location     Type
  2096 ;;                  1    wreg      void 
  2097 ;; Registers used:
  2098 ;;		wreg, fsr0l, fsr0h, status,2, status,0, btemp+1, pclath, cstack
  2099 ;; Tracked objects:
  2100 ;;		On entry : 0/0
  2101 ;;		On exit  : 0/0
  2102 ;;		Unchanged: 0/0
  2103 ;; Data sizes:     COMMON   BANK0   BANK1   BANK3   BANK2
  2104 ;;      Params:         0       0       5       0       0
  2105 ;;      Locals:         0       0      45       0       0
  2106 ;;      Temps:          0       4       0       0       0
  2107 ;;      Totals:         0       4      50       0       0
  2108 ;;Total ram usage:       54 bytes
  2109 ;; Hardware stack levels used: 1
  2110 ;; Hardware stack levels required when called: 7
  2111 ;; This function calls:
  2112 ;;		___fladd
  2113 ;;		___fldiv
  2114 ;;		___fleq
  2115 ;;		___flge
  2116 ;;		___flmul
  2117 ;;		___flneg
  2118 ;;		___flsub
  2119 ;;		___fltol
  2120 ;;		___fpclassifyf
  2121 ;;		_floorf
  2122 ;;		_labs
  2123 ;;		_memcpy
  2124 ;;		_pad
  2125 ;;		_strcpy
  2126 ;; This function is called by:
  2127 ;;		_vfpfcnvrt
  2128 ;; This function uses a non-reentrant model
  2129 ;;
  2130                           
  2131     144B                     _efgtoa:	
  2132                           ;psect for function _efgtoa
  2133                           
  2134                           
  2135                           ;incstack = 0
  2136 ;; hardware stack exceeded
  2137                           ; Regs used in _efgtoa: [wreg-fsr0h+status,2+status,0+btemp+1+pclath+cstack]
  2138                           ;efgtoa@fp stored from wreg
  2139     144B  1683               	bsf	3,5	;RP0=1, select bank1
  2140     144C  1303               	bcf	3,6	;RP1=0, select bank1
  2141     144D  00BE               	movwf	efgtoa@fp^(0+128)
  2142     144E                     l2660:
  2143                           
  2144                           ;C:\Program Files\Microchip\xc8\v2.46\pic\sources\c99\common\doprnt.c: 587: static void 
      +                          efgtoa(FILE *fp, long double f, char c);C:\Program Files\Microchip\xc8\v2.46\pic\sources
      +                          \c99\common\doprnt.c: 588: {;C:\Program Files\Microchip\xc8\v2.46\pic\sources\c99\common
      +                          \doprnt.c: 589:     char mode, nmode, pp, sign, esign;;C:\Program Files\Microchip\xc8\v2
      +                          .46\pic\sources\c99\common\doprnt.c: 590:     int d, e, i, m, n, ne, p, t, w;;C:\Program
      +                           Files\Microchip\xc8\v2.46\pic\sources\c99\common\doprnt.c: 591:     long double h, l;
  2145     144E  01D1               	clrf	efgtoa@sign^(0+128)
  2146     144F                     l2662:
  2147                           
  2148                           ;C:\Program Files\Microchip\xc8\v2.46\pic\sources\c99\common\doprnt.c: 596:     g.f = f;
  2149     144F  082D               	movf	(efgtoa@f+3)^(0+128),w
  2150     1450  00D7               	movwf	(efgtoa@g+3)^(0+128)
  2151     1451  082C               	movf	(efgtoa@f+2)^(0+128),w
  2152     1452  00D6               	movwf	(efgtoa@g+2)^(0+128)
  2153     1453  082B               	movf	(efgtoa@f+1)^(0+128),w
  2154     1454  00D5               	movwf	(efgtoa@g+1)^(0+128)
  2155     1455  082A               	movf	efgtoa@f^(0+128),w
  2156     1456  00D4               	movwf	efgtoa@g^(0+128)
  2157     1457                     l2664:
  2158                           
  2159                           ;C:\Program Files\Microchip\xc8\v2.46\pic\sources\c99\common\doprnt.c: 597:     if (g.f 
      +                          < 0.0) {
  2160     1457  0857               	movf	(efgtoa@g+3)^(0+128),w
  2161     1458  1283               	bcf	3,5	;RP0=0, select bank0
  2162     1459  1303               	bcf	3,6	;RP1=0, select bank0
  2163     145A  00CB               	movwf	___flge@ff1+3
  2164     145B  1683               	bsf	3,5	;RP0=1, select bank1
  2165     145C  1303               	bcf	3,6	;RP1=0, select bank1
  2166     145D  0856               	movf	(efgtoa@g+2)^(0+128),w
  2167     145E  1283               	bcf	3,5	;RP0=0, select bank0
  2168     145F  1303               	bcf	3,6	;RP1=0, select bank0
  2169     1460  00CA               	movwf	___flge@ff1+2
  2170     1461  1683               	bsf	3,5	;RP0=1, select bank1
  2171     1462  1303               	bcf	3,6	;RP1=0, select bank1
  2172     1463  0855               	movf	(efgtoa@g+1)^(0+128),w
  2173     1464  1283               	bcf	3,5	;RP0=0, select bank0
  2174     1465  1303               	bcf	3,6	;RP1=0, select bank0
  2175     1466  00C9               	movwf	___flge@ff1+1
  2176     1467  1683               	bsf	3,5	;RP0=1, select bank1
  2177     1468  1303               	bcf	3,6	;RP1=0, select bank1
  2178     1469  0854               	movf	efgtoa@g^(0+128),w
  2179     146A  1283               	bcf	3,5	;RP0=0, select bank0
  2180     146B  1303               	bcf	3,6	;RP1=0, select bank0
  2181     146C  00C8               	movwf	___flge@ff1
  2182     146D  3000               	movlw	0
  2183     146E  00CF               	movwf	___flge@ff2+3
  2184     146F  3000               	movlw	0
  2185     1470  00CE               	movwf	___flge@ff2+2
  2186     1471  3000               	movlw	0
  2187     1472  00CD               	movwf	___flge@ff2+1
  2188     1473  3000               	movlw	0
  2189     1474  00CC               	movwf	___flge@ff2
  2190     1475  160A  118A  2124  160A  118A  	fcall	___flge
  2191     147A  1803               	btfsc	3,0
  2192     147B  2C7D               	goto	u4021
  2193     147C  2C7E               	goto	u4020
  2194     147D                     u4021:
  2195     147D  2CB5               	goto	l2670
  2196     147E                     u4020:
  2197     147E                     l2666:
  2198                           
  2199                           ;C:\Program Files\Microchip\xc8\v2.46\pic\sources\c99\common\doprnt.c: 598:         sign
      +                           = 1;
  2200     147E  1683               	bsf	3,5	;RP0=1, select bank1
  2201     147F  1303               	bcf	3,6	;RP1=0, select bank1
  2202     1480  01D1               	clrf	efgtoa@sign^(0+128)
  2203     1481  0AD1               	incf	efgtoa@sign^(0+128),f
  2204     1482                     l2668:
  2205                           
  2206                           ;C:\Program Files\Microchip\xc8\v2.46\pic\sources\c99\common\doprnt.c: 599:         g.f 
      +                          = -g.f;
  2207     1482  0857               	movf	(efgtoa@g+3)^(0+128),w
  2208     1483  1283               	bcf	3,5	;RP0=0, select bank0
  2209     1484  1303               	bcf	3,6	;RP1=0, select bank0
  2210     1485  00A3               	movwf	___flneg@f1+3
  2211     1486  1683               	bsf	3,5	;RP0=1, select bank1
  2212     1487  1303               	bcf	3,6	;RP1=0, select bank1
  2213     1488  0856               	movf	(efgtoa@g+2)^(0+128),w
  2214     1489  1283               	bcf	3,5	;RP0=0, select bank0
  2215     148A  1303               	bcf	3,6	;RP1=0, select bank0
  2216     148B  00A2               	movwf	___flneg@f1+2
  2217     148C  1683               	bsf	3,5	;RP0=1, select bank1
  2218     148D  1303               	bcf	3,6	;RP1=0, select bank1
  2219     148E  0855               	movf	(efgtoa@g+1)^(0+128),w
  2220     148F  1283               	bcf	3,5	;RP0=0, select bank0
  2221     1490  1303               	bcf	3,6	;RP1=0, select bank0
  2222     1491  00A1               	movwf	___flneg@f1+1
  2223     1492  1683               	bsf	3,5	;RP0=1, select bank1
  2224     1493  1303               	bcf	3,6	;RP1=0, select bank1
  2225     1494  0854               	movf	efgtoa@g^(0+128),w
  2226     1495  1283               	bcf	3,5	;RP0=0, select bank0
  2227     1496  1303               	bcf	3,6	;RP1=0, select bank0
  2228     1497  00A0               	movwf	___flneg@f1
  2229     1498  160A  158A  25AE  160A  118A  	fcall	___flneg
  2230     149D  1283               	bcf	3,5	;RP0=0, select bank0
  2231     149E  1303               	bcf	3,6	;RP1=0, select bank0
  2232     149F  0823               	movf	?___flneg+3,w
  2233     14A0  1683               	bsf	3,5	;RP0=1, select bank1
  2234     14A1  1303               	bcf	3,6	;RP1=0, select bank1
  2235     14A2  00D7               	movwf	(efgtoa@g+3)^(0+128)
  2236     14A3  1283               	bcf	3,5	;RP0=0, select bank0
  2237     14A4  1303               	bcf	3,6	;RP1=0, select bank0
  2238     14A5  0822               	movf	?___flneg+2,w
  2239     14A6  1683               	bsf	3,5	;RP0=1, select bank1
  2240     14A7  1303               	bcf	3,6	;RP1=0, select bank1
  2241     14A8  00D6               	movwf	(efgtoa@g+2)^(0+128)
  2242     14A9  1283               	bcf	3,5	;RP0=0, select bank0
  2243     14AA  1303               	bcf	3,6	;RP1=0, select bank0
  2244     14AB  0821               	movf	?___flneg+1,w
  2245     14AC  1683               	bsf	3,5	;RP0=1, select bank1
  2246     14AD  1303               	bcf	3,6	;RP1=0, select bank1
  2247     14AE  00D5               	movwf	(efgtoa@g+1)^(0+128)
  2248     14AF  1283               	bcf	3,5	;RP0=0, select bank0
  2249     14B0  1303               	bcf	3,6	;RP1=0, select bank0
  2250     14B1  0820               	movf	?___flneg,w
  2251     14B2  1683               	bsf	3,5	;RP0=1, select bank1
  2252     14B3  1303               	bcf	3,6	;RP1=0, select bank1
  2253     14B4  00D4               	movwf	efgtoa@g^(0+128)
  2254     14B5                     l2670:
  2255                           
  2256                           ;C:\Program Files\Microchip\xc8\v2.46\pic\sources\c99\common\doprnt.c: 603:     n = 0;
  2257     14B5  1683               	bsf	3,5	;RP0=1, select bank1
  2258     14B6  1303               	bcf	3,6	;RP1=0, select bank1
  2259     14B7  01D2               	clrf	efgtoa@n^(0+128)
  2260     14B8  01D3               	clrf	(efgtoa@n+1)^(0+128)
  2261     14B9                     l2672:
  2262                           
  2263                           ;C:\Program Files\Microchip\xc8\v2.46\pic\sources\c99\common\doprnt.c: 604:     w = widt
      +                          h;
  2264     14B9  087A               	movf	_width+1,w
  2265     14BA  00C2               	movwf	(efgtoa@w+1)^(0+128)
  2266     14BB  0879               	movf	_width,w
  2267     14BC  00C1               	movwf	efgtoa@w^(0+128)
  2268     14BD                     l2674:
  2269                           
  2270                           ;C:\Program Files\Microchip\xc8\v2.46\pic\sources\c99\common\doprnt.c: 605:     if (sign
  2271     14BD  0851               	movf	efgtoa@sign^(0+128),w
  2272     14BE  1903               	btfsc	3,2
  2273     14BF  2CC1               	goto	u4031
  2274     14C0  2CC2               	goto	u4030
  2275     14C1                     u4031:
  2276     14C1  2CD2               	goto	l2682
  2277     14C2                     u4030:
  2278     14C2                     l2676:
  2279                           
  2280                           ;C:\Program Files\Microchip\xc8\v2.46\pic\sources\c99\common\doprnt.c: 609:    ) {;C:\Pr
      +                          ogram Files\Microchip\xc8\v2.46\pic\sources\c99\common\doprnt.c: 610:   sign = sign ? '-
      +                          ' : '+';
  2281     14C2  0851               	movf	efgtoa@sign^(0+128),w
  2282     14C3  1D03               	btfss	3,2
  2283     14C4  2CC6               	goto	u4041
  2284     14C5  2CC7               	goto	u4040
  2285     14C6                     u4041:
  2286     14C6  2CCC               	goto	l2680
  2287     14C7                     u4040:
  2288     14C7                     l2678:
  2289     14C7  302B               	movlw	43
  2290     14C8  00B5               	movwf	_efgtoa$861^(0+128)
  2291     14C9  3000               	movlw	0
  2292     14CA  00B6               	movwf	(_efgtoa$861^(0+128)+1)
  2293     14CB  2CD0               	goto	l657
  2294     14CC                     l2680:
  2295     14CC  302D               	movlw	45
  2296     14CD  00B5               	movwf	_efgtoa$861^(0+128)
  2297     14CE  3000               	movlw	0
  2298     14CF  00B6               	movwf	(_efgtoa$861^(0+128)+1)
  2299     14D0                     l657:
  2300     14D0  0835               	movf	_efgtoa$861^(0+128),w
  2301     14D1  00D1               	movwf	efgtoa@sign^(0+128)
  2302     14D2                     l2682:
  2303                           
  2304                           ;C:\Program Files\Microchip\xc8\v2.46\pic\sources\c99\common\doprnt.c: 619:     if (( __
      +                          fpclassifyf(g.f) == 1 )) {
  2305     14D2  0857               	movf	(efgtoa@g+3)^(0+128),w
  2306     14D3  1283               	bcf	3,5	;RP0=0, select bank0
  2307     14D4  1303               	bcf	3,6	;RP1=0, select bank0
  2308     14D5  00A3               	movwf	___fpclassifyf@x+3
  2309     14D6  1683               	bsf	3,5	;RP0=1, select bank1
  2310     14D7  1303               	bcf	3,6	;RP1=0, select bank1
  2311     14D8  0856               	movf	(efgtoa@g+2)^(0+128),w
  2312     14D9  1283               	bcf	3,5	;RP0=0, select bank0
  2313     14DA  1303               	bcf	3,6	;RP1=0, select bank0
  2314     14DB  00A2               	movwf	___fpclassifyf@x+2
  2315     14DC  1683               	bsf	3,5	;RP0=1, select bank1
  2316     14DD  1303               	bcf	3,6	;RP1=0, select bank1
  2317     14DE  0855               	movf	(efgtoa@g+1)^(0+128),w
  2318     14DF  1283               	bcf	3,5	;RP0=0, select bank0
  2319     14E0  1303               	bcf	3,6	;RP1=0, select bank0
  2320     14E1  00A1               	movwf	___fpclassifyf@x+1
  2321     14E2  1683               	bsf	3,5	;RP0=1, select bank1
  2322     14E3  1303               	bcf	3,6	;RP1=0, select bank1
  2323     14E4  0854               	movf	efgtoa@g^(0+128),w
  2324     14E5  1283               	bcf	3,5	;RP0=0, select bank0
  2325     14E6  1303               	bcf	3,6	;RP1=0, select bank0
  2326     14E7  00A0               	movwf	___fpclassifyf@x
  2327     14E8  160A  118A  2097  160A  118A  	fcall	___fpclassifyf
  2328     14ED  1283               	bcf	3,5	;RP0=0, select bank0
  2329     14EE  1303               	bcf	3,6	;RP1=0, select bank0
  2330     14EF  0320               	decf	?___fpclassifyf,w
  2331     14F0  0421               	iorwf	?___fpclassifyf+1,w
  2332     14F1  1D03               	btfss	3,2
  2333     14F2  2CF4               	goto	u4051
  2334     14F3  2CF5               	goto	u4050
  2335     14F4                     u4051:
  2336     14F4  2D3C               	goto	l2696
  2337     14F5                     u4050:
  2338     14F5                     l2684:
  2339                           
  2340                           ;C:\Program Files\Microchip\xc8\v2.46\pic\sources\c99\common\doprnt.c: 620:   if (sign) 
      +                          {
  2341     14F5  1683               	bsf	3,5	;RP0=1, select bank1
  2342     14F6  1303               	bcf	3,6	;RP1=0, select bank1
  2343     14F7  0851               	movf	efgtoa@sign^(0+128),w
  2344     14F8  1903               	btfsc	3,2
  2345     14F9  2CFB               	goto	u4061
  2346     14FA  2CFC               	goto	u4060
  2347     14FB                     u4061:
  2348     14FB  2D0C               	goto	l2688
  2349     14FC                     u4060:
  2350     14FC                     l2686:
  2351                           
  2352                           ;C:\Program Files\Microchip\xc8\v2.46\pic\sources\c99\common\doprnt.c: 621:    dbuf[0] =
      +                           sign;
  2353     14FC  0851               	movf	efgtoa@sign^(0+128),w
  2354     14FD  1283               	bcf	3,5	;RP0=0, select bank2
  2355     14FE  1703               	bsf	3,6	;RP1=1, select bank2
  2356     14FF  0090               	movwf	_dbuf^(0+256)
  2357                           
  2358                           ;C:\Program Files\Microchip\xc8\v2.46\pic\sources\c99\common\doprnt.c: 622:    w--;
  2359     1500  30FF               	movlw	255
  2360     1501  1683               	bsf	3,5	;RP0=1, select bank1
  2361     1502  1303               	bcf	3,6	;RP1=0, select bank1
  2362     1503  07C1               	addwf	efgtoa@w^(0+128),f
  2363     1504  1803               	skipnc
  2364     1505  0AC2               	incf	(efgtoa@w+1)^(0+128),f
  2365     1506  30FF               	movlw	255
  2366     1507  07C2               	addwf	(efgtoa@w+1)^(0+128),f
  2367                           
  2368                           ;C:\Program Files\Microchip\xc8\v2.46\pic\sources\c99\common\doprnt.c: 623:    n = 1;
  2369     1508  3001               	movlw	1
  2370     1509  00D2               	movwf	efgtoa@n^(0+128)
  2371     150A  3000               	movlw	0
  2372     150B  00D3               	movwf	(efgtoa@n^(0+128)+1)
  2373     150C                     l2688:
  2374                           
  2375                           ;C:\Program Files\Microchip\xc8\v2.46\pic\sources\c99\common\doprnt.c: 631:   {;C:\Progr
      +                          am Files\Microchip\xc8\v2.46\pic\sources\c99\common\doprnt.c: 632:             strcpy(&d
      +                          buf[n], "inf");
  2376     150C  3028               	movlw	(low ((STR_3-__stringbase)| (0+32768)))& (0+255)
  2377     150D  1283               	bcf	3,5	;RP0=0, select bank0
  2378     150E  1303               	bcf	3,6	;RP1=0, select bank0
  2379     150F  00A0               	movwf	strcpy@src
  2380     1510  1683               	bsf	3,5	;RP0=1, select bank1
  2381     1511  1303               	bcf	3,6	;RP1=0, select bank1
  2382     1512  0852               	movf	efgtoa@n^(0+128),w
  2383     1513  3E10               	addlw	(low (_dbuf| (0+256)))& (0+255)
  2384     1514  160A  158A  25D2  160A  118A  	fcall	_strcpy
  2385     1519                     l2690:
  2386                           
  2387                           ;C:\Program Files\Microchip\xc8\v2.46\pic\sources\c99\common\doprnt.c: 633:         };C:
      +                          \Program Files\Microchip\xc8\v2.46\pic\sources\c99\common\doprnt.c: 634:         w -= ((
      +                          sizeof("inf")/sizeof("inf"[0]))-1);
  2388     1519  30FD               	movlw	253
  2389     151A  1683               	bsf	3,5	;RP0=1, select bank1
  2390     151B  1303               	bcf	3,6	;RP1=0, select bank1
  2391     151C  07C1               	addwf	efgtoa@w^(0+128),f
  2392     151D  1803               	skipnc
  2393     151E  0AC2               	incf	(efgtoa@w+1)^(0+128),f
  2394     151F  30FF               	movlw	255
  2395     1520  07C2               	addwf	(efgtoa@w+1)^(0+128),f
  2396     1521                     l2692:
  2397                           
  2398                           ;C:\Program Files\Microchip\xc8\v2.46\pic\sources\c99\common\doprnt.c: 635:         retu
      +                          rn (void) pad(fp, &dbuf[0], w);
  2399     1521  3010               	movlw	(low (_dbuf| (0+256)))& (0+255)
  2400     1522  1283               	bcf	3,5	;RP0=0, select bank0
  2401     1523  1303               	bcf	3,6	;RP1=0, select bank0
  2402     1524  00AF               	movwf	pad@buf
  2403     1525  1683               	bsf	3,5	;RP0=1, select bank1
  2404     1526  1303               	bcf	3,6	;RP1=0, select bank1
  2405     1527  0842               	movf	(efgtoa@w+1)^(0+128),w
  2406     1528  1283               	bcf	3,5	;RP0=0, select bank0
  2407     1529  1303               	bcf	3,6	;RP1=0, select bank0
  2408     152A  00B1               	movwf	pad@p+1
  2409     152B  1683               	bsf	3,5	;RP0=1, select bank1
  2410     152C  1303               	bcf	3,6	;RP1=0, select bank1
  2411     152D  0841               	movf	efgtoa@w^(0+128),w
  2412     152E  1283               	bcf	3,5	;RP0=0, select bank0
  2413     152F  1303               	bcf	3,6	;RP1=0, select bank0
  2414     1530  00B0               	movwf	pad@p
  2415     1531  1683               	bsf	3,5	;RP0=1, select bank1
  2416     1532  1303               	bcf	3,6	;RP1=0, select bank1
  2417     1533  083E               	movf	efgtoa@fp^(0+128),w
  2418     1534  160A  158A  276C  160A  118A  	fcall	_pad
  2419     1539                     L1:
  2420     1539  120A  118A  2DD8   	goto	l660
  2421     153C                     l2696:
  2422                           
  2423                           ;C:\Program Files\Microchip\xc8\v2.46\pic\sources\c99\common\doprnt.c: 637:     if (( __
      +                          fpclassifyf(g.f) == 0 )) {
  2424     153C  1683               	bsf	3,5	;RP0=1, select bank1
  2425     153D  1303               	bcf	3,6	;RP1=0, select bank1
  2426     153E  0857               	movf	(efgtoa@g+3)^(0+128),w
  2427     153F  1283               	bcf	3,5	;RP0=0, select bank0
  2428     1540  1303               	bcf	3,6	;RP1=0, select bank0
  2429     1541  00A3               	movwf	___fpclassifyf@x+3
  2430     1542  1683               	bsf	3,5	;RP0=1, select bank1
  2431     1543  1303               	bcf	3,6	;RP1=0, select bank1
  2432     1544  0856               	movf	(efgtoa@g+2)^(0+128),w
  2433     1545  1283               	bcf	3,5	;RP0=0, select bank0
  2434     1546  1303               	bcf	3,6	;RP1=0, select bank0
  2435     1547  00A2               	movwf	___fpclassifyf@x+2
  2436     1548  1683               	bsf	3,5	;RP0=1, select bank1
  2437     1549  1303               	bcf	3,6	;RP1=0, select bank1
  2438     154A  0855               	movf	(efgtoa@g+1)^(0+128),w
  2439     154B  1283               	bcf	3,5	;RP0=0, select bank0
  2440     154C  1303               	bcf	3,6	;RP1=0, select bank0
  2441     154D  00A1               	movwf	___fpclassifyf@x+1
  2442     154E  1683               	bsf	3,5	;RP0=1, select bank1
  2443     154F  1303               	bcf	3,6	;RP1=0, select bank1
  2444     1550  0854               	movf	efgtoa@g^(0+128),w
  2445     1551  1283               	bcf	3,5	;RP0=0, select bank0
  2446     1552  1303               	bcf	3,6	;RP1=0, select bank0
  2447     1553  00A0               	movwf	___fpclassifyf@x
  2448     1554  160A  118A  2097  160A  118A  	fcall	___fpclassifyf
  2449     1559  1283               	bcf	3,5	;RP0=0, select bank0
  2450     155A  1303               	bcf	3,6	;RP1=0, select bank0
  2451     155B  0820               	movf	?___fpclassifyf,w
  2452     155C  0421               	iorwf	?___fpclassifyf+1,w
  2453     155D  1D03               	btfss	3,2
  2454     155E  2D60               	goto	u4071
  2455     155F  2D63               	goto	u4070
  2456     1560                     u4071:
  2457     1560  120A  158A  2A2C   	goto	l2710
  2458     1563                     u4070:
  2459     1563                     l2698:
  2460                           
  2461                           ;C:\Program Files\Microchip\xc8\v2.46\pic\sources\c99\common\doprnt.c: 638:   if (sign) 
      +                          {
  2462     1563  1683               	bsf	3,5	;RP0=1, select bank1
  2463     1564  1303               	bcf	3,6	;RP1=0, select bank1
  2464     1565  0851               	movf	efgtoa@sign^(0+128),w
  2465     1566  1903               	btfsc	3,2
  2466     1567  2D69               	goto	u4081
  2467     1568  2D6A               	goto	u4080
  2468     1569                     u4081:
  2469     1569  2D7A               	goto	l2702
  2470     156A                     u4080:
  2471     156A                     l2700:
  2472                           
  2473                           ;C:\Program Files\Microchip\xc8\v2.46\pic\sources\c99\common\doprnt.c: 639:    dbuf[0] =
      +                           sign;
  2474     156A  0851               	movf	efgtoa@sign^(0+128),w
  2475     156B  1283               	bcf	3,5	;RP0=0, select bank2
  2476     156C  1703               	bsf	3,6	;RP1=1, select bank2
  2477     156D  0090               	movwf	_dbuf^(0+256)
  2478                           
  2479                           ;C:\Program Files\Microchip\xc8\v2.46\pic\sources\c99\common\doprnt.c: 640:    w--;
  2480     156E  30FF               	movlw	255
  2481     156F  1683               	bsf	3,5	;RP0=1, select bank1
  2482     1570  1303               	bcf	3,6	;RP1=0, select bank1
  2483     1571  07C1               	addwf	efgtoa@w^(0+128),f
  2484     1572  1803               	skipnc
  2485     1573  0AC2               	incf	(efgtoa@w+1)^(0+128),f
  2486     1574  30FF               	movlw	255
  2487     1575  07C2               	addwf	(efgtoa@w+1)^(0+128),f
  2488                           
  2489                           ;C:\Program Files\Microchip\xc8\v2.46\pic\sources\c99\common\doprnt.c: 641:    n = 1;
  2490     1576  3001               	movlw	1
  2491     1577  00D2               	movwf	efgtoa@n^(0+128)
  2492     1578  3000               	movlw	0
  2493     1579  00D3               	movwf	(efgtoa@n^(0+128)+1)
  2494     157A                     l2702:
  2495                           
  2496                           ;C:\Program Files\Microchip\xc8\v2.46\pic\sources\c99\common\doprnt.c: 649:   {;C:\Progr
      +                          am Files\Microchip\xc8\v2.46\pic\sources\c99\common\doprnt.c: 650:             strcpy(&d
      +                          buf[n], "nan");
  2497     157A  302C               	movlw	(low ((STR_6-__stringbase)| (0+32768)))& (0+255)
  2498     157B  1283               	bcf	3,5	;RP0=0, select bank0
  2499     157C  1303               	bcf	3,6	;RP1=0, select bank0
  2500     157D  00A0               	movwf	strcpy@src
  2501     157E  1683               	bsf	3,5	;RP0=1, select bank1
  2502     157F  1303               	bcf	3,6	;RP1=0, select bank1
  2503     1580  0852               	movf	efgtoa@n^(0+128),w
  2504     1581  3E10               	addlw	(low (_dbuf| (0+256)))& (0+255)
  2505     1582  160A  158A  25D2  160A  118A  	fcall	_strcpy
  2506     1587                     l2704:
  2507                           
  2508                           ;C:\Program Files\Microchip\xc8\v2.46\pic\sources\c99\common\doprnt.c: 651:         };C:
      +                          \Program Files\Microchip\xc8\v2.46\pic\sources\c99\common\doprnt.c: 652:         w -= ((
      +                          sizeof("nan")/sizeof("nan"[0]))-1);
  2509     1587  30FD               	movlw	253
  2510     1588  1683               	bsf	3,5	;RP0=1, select bank1
  2511     1589  1303               	bcf	3,6	;RP1=0, select bank1
  2512     158A  07C1               	addwf	efgtoa@w^(0+128),f
  2513     158B  1803               	skipnc
  2514     158C  0AC2               	incf	(efgtoa@w+1)^(0+128),f
  2515     158D  30FF               	movlw	255
  2516     158E  07C2               	addwf	(efgtoa@w+1)^(0+128),f
  2517     158F                     l2706:
  2518                           
  2519                           ;C:\Program Files\Microchip\xc8\v2.46\pic\sources\c99\common\doprnt.c: 653:         retu
      +                          rn (void) pad(fp, &dbuf[0], w);
  2520     158F  3010               	movlw	(low (_dbuf| (0+256)))& (0+255)
  2521     1590  1283               	bcf	3,5	;RP0=0, select bank0
  2522     1591  1303               	bcf	3,6	;RP1=0, select bank0
  2523     1592  00AF               	movwf	pad@buf
  2524     1593  1683               	bsf	3,5	;RP0=1, select bank1
  2525     1594  1303               	bcf	3,6	;RP1=0, select bank1
  2526     1595  0842               	movf	(efgtoa@w+1)^(0+128),w
  2527     1596  1283               	bcf	3,5	;RP0=0, select bank0
  2528     1597  1303               	bcf	3,6	;RP1=0, select bank0
  2529     1598  00B1               	movwf	pad@p+1
  2530     1599  1683               	bsf	3,5	;RP0=1, select bank1
  2531     159A  1303               	bcf	3,6	;RP1=0, select bank1
  2532     159B  0841               	movf	efgtoa@w^(0+128),w
  2533     159C  1283               	bcf	3,5	;RP0=0, select bank0
  2534     159D  1303               	bcf	3,6	;RP1=0, select bank0
  2535     159E  00B0               	movwf	pad@p
  2536     159F  1683               	bsf	3,5	;RP0=1, select bank1
  2537     15A0  1303               	bcf	3,6	;RP1=0, select bank1
  2538     15A1  083E               	movf	efgtoa@fp^(0+128),w
  2539     15A2  160A  158A  276C  160A  118A  	fcall	_pad
  2540     15A7  2D39               	goto	L1
  2541                           
  2542                           	psect	text7
  2543     1DD2                     __ptext7:	
  2544 ;; *************** function _strcpy *****************
  2545 ;; Defined at:
  2546 ;;		line 3 in file "C:\Program Files\Microchip\xc8\v2.46\pic\sources\c99\common\strcpy.c"
  2547 ;; Parameters:    Size  Location     Type
  2548 ;;  dest            1    wreg     PTR unsigned char 
  2549 ;;		 -> dbuf(80), 
  2550 ;;  src             1    0[BANK0 ] PTR const unsigned char 
  2551 ;;		 -> STR_6(4), STR_3(4), 
  2552 ;; Auto vars:     Size  Location     Type
  2553 ;;  dest            1    2[BANK0 ] PTR unsigned char 
  2554 ;;		 -> dbuf(80), 
  2555 ;;  d               1    1[BANK0 ] PTR unsigned char 
  2556 ;;		 -> dbuf(80), 
  2557 ;; Return value:  Size  Location     Type
  2558 ;;                  1    wreg      PTR unsigned char 
  2559 ;; Registers used:
  2560 ;;		wreg, fsr0l, fsr0h, status,2, status,0, btemp+1, pclath
  2561 ;; Tracked objects:
  2562 ;;		On entry : 0/0
  2563 ;;		On exit  : 0/0
  2564 ;;		Unchanged: 0/0
  2565 ;; Data sizes:     COMMON   BANK0   BANK1   BANK3   BANK2
  2566 ;;      Params:         0       1       0       0       0
  2567 ;;      Locals:         0       2       0       0       0
  2568 ;;      Temps:          0       0       0       0       0
  2569 ;;      Totals:         0       3       0       0       0
  2570 ;;Total ram usage:        3 bytes
  2571 ;; Hardware stack levels used: 1
  2572 ;; Hardware stack levels required when called: 3
  2573 ;; This function calls:
  2574 ;;		Nothing
  2575 ;; This function is called by:
  2576 ;;		_efgtoa
  2577 ;; This function uses a non-reentrant model
  2578 ;;
  2579                           
  2580     1DD2                     _strcpy:	
  2581                           ;psect for function _strcpy
  2582                           
  2583                           
  2584                           ;incstack = 0
  2585 ;; using string table level
  2586                           ; Regs used in _strcpy: [wreg-fsr0h+status,2+status,0+btemp+1+pclath]
  2587                           ;strcpy@dest stored from wreg
  2588     1DD2  1283               	bcf	3,5	;RP0=0, select bank0
  2589     1DD3  1303               	bcf	3,6	;RP1=0, select bank0
  2590     1DD4  00A2               	movwf	strcpy@dest
  2591     1DD5                     l2608:
  2592     1DD5  0822               	movf	strcpy@dest,w
  2593     1DD6  00A1               	movwf	strcpy@d
  2594     1DD7                     l2610:
  2595     1DD7  3001               	movlw	1
  2596     1DD8  07A0               	addwf	strcpy@src,f
  2597     1DD9  30FF               	movlw	-1
  2598     1DDA  0720               	addwf	strcpy@src,w
  2599     1DDB  0084               	movwf	4
  2600     1DDC  160A  158A  200A  160A  158A  	fcall	stringdir
  2601     1DE1  00FF               	movwf	btemp+1
  2602     1DE2  0821               	movf	strcpy@d,w
  2603     1DE3  0084               	movwf	4
  2604     1DE4  3001               	movlw	1
  2605     1DE5  07A1               	addwf	strcpy@d,f
  2606     1DE6  087F               	movf	btemp+1,w
  2607     1DE7  1783               	bsf	3,7	;select IRP bank2
  2608     1DE8  0080               	movwf	0
  2609     1DE9  0800               	movf	0,w
  2610     1DEA  1D03               	btfss	3,2
  2611     1DEB  2DED               	goto	u3871
  2612     1DEC  2DEE               	goto	u3870
  2613     1DED                     u3871:
  2614     1DED  2DD7               	goto	l2610
  2615     1DEE                     u3870:
  2616     1DEE                     l802:
  2617     1DEE  0008               	return
  2618     1DEF                     __end_of_strcpy:
  2619                           
  2620                           	psect	text8
  2621     1F6C                     __ptext8:	
  2622 ;; *************** function _pad *****************
  2623 ;; Defined at:
  2624 ;;		line 193 in file "C:\Program Files\Microchip\xc8\v2.46\pic\sources\c99\common\doprnt.c"
  2625 ;; Parameters:    Size  Location     Type
  2626 ;;  fp              1    wreg     PTR struct _IO_FILE
  2627 ;;		 -> sprintf@f(11), 
  2628 ;;  buf             1   15[BANK0 ] PTR unsigned char 
  2629 ;;		 -> dbuf(80), 
  2630 ;;  p               2   16[BANK0 ] int 
  2631 ;; Auto vars:     Size  Location     Type
  2632 ;;  fp              1   21[BANK0 ] PTR struct _IO_FILE
  2633 ;;		 -> sprintf@f(11), 
  2634 ;;  i               2   19[BANK0 ] int 
  2635 ;; Return value:  Size  Location     Type
  2636 ;;                  1    wreg      void 
  2637 ;; Registers used:
  2638 ;;		wreg, fsr0l, fsr0h, status,2, status,0, pclath, cstack
  2639 ;; Tracked objects:
  2640 ;;		On entry : 0/0
  2641 ;;		On exit  : 0/0
  2642 ;;		Unchanged: 0/0
  2643 ;; Data sizes:     COMMON   BANK0   BANK1   BANK3   BANK2
  2644 ;;      Params:         0       3       0       0       0
  2645 ;;      Locals:         0       3       0       0       0
  2646 ;;      Temps:          0       1       0       0       0
  2647 ;;      Totals:         0       7       0       0       0
  2648 ;;Total ram usage:        7 bytes
  2649 ;; Hardware stack levels used: 1
  2650 ;; Hardware stack levels required when called: 6
  2651 ;; This function calls:
  2652 ;;		_fputc
  2653 ;;		_fputs
  2654 ;; This function is called by:
  2655 ;;		_efgtoa
  2656 ;; This function uses a non-reentrant model
  2657 ;;
  2658                           
  2659     1F6C                     _pad:	
  2660                           ;psect for function _pad
  2661                           
  2662                           
  2663                           ;incstack = 0
  2664 ;; hardware stack exceeded
  2665                           ; Regs used in _pad: [wreg-fsr0h+status,2+status,0+pclath+cstack]
  2666                           ;pad@fp stored from wreg
  2667     1F6C  1283               	bcf	3,5	;RP0=0, select bank0
  2668     1F6D  1303               	bcf	3,6	;RP1=0, select bank0
  2669     1F6E  00B5               	movwf	pad@fp
  2670     1F6F                     l2572:
  2671                           
  2672                           ;C:\Program Files\Microchip\xc8\v2.46\pic\sources\c99\common\doprnt.c: 193: static void 
      +                          pad(FILE *fp, char *buf, int p);C:\Program Files\Microchip\xc8\v2.46\pic\sources\c99\com
      +                          mon\doprnt.c: 194: {;C:\Program Files\Microchip\xc8\v2.46\pic\sources\c99\common\doprnt.
      +                          c: 195:     int i;;C:\Program Files\Microchip\xc8\v2.46\pic\sources\c99\common\doprnt.c:
      +                           205:  if (p < 0) {
  2673     1F6F  1FB1               	btfss	pad@p+1,7
  2674     1F70  2F72               	goto	u3771
  2675     1F71  2F73               	goto	u3770
  2676     1F72                     u3771:
  2677     1F72  2F75               	goto	l645
  2678     1F73                     u3770:
  2679     1F73                     l2574:
  2680                           
  2681                           ;C:\Program Files\Microchip\xc8\v2.46\pic\sources\c99\common\doprnt.c: 206:   p = 0;
  2682     1F73  01B0               	clrf	pad@p
  2683     1F74  01B1               	clrf	pad@p+1
  2684     1F75                     l645:	
  2685                           ;C:\Program Files\Microchip\xc8\v2.46\pic\sources\c99\common\doprnt.c: 207:  }
  2686                           
  2687                           
  2688                           ;C:\Program Files\Microchip\xc8\v2.46\pic\sources\c99\common\doprnt.c: 208:     i = 0;
  2689     1F75  01B3               	clrf	pad@i
  2690     1F76  01B4               	clrf	pad@i+1
  2691                           
  2692                           ;C:\Program Files\Microchip\xc8\v2.46\pic\sources\c99\common\doprnt.c: 209:     while (i
      +                           < p) {
  2693     1F77  2F8D               	goto	l2580
  2694     1F78                     l2576:
  2695                           
  2696                           ;C:\Program Files\Microchip\xc8\v2.46\pic\sources\c99\common\doprnt.c: 210:         fput
      +                          c(' ', fp);
  2697     1F78  3020               	movlw	32
  2698     1F79  1283               	bcf	3,5	;RP0=0, select bank0
  2699     1F7A  1303               	bcf	3,6	;RP1=0, select bank0
  2700     1F7B  00A0               	movwf	fputc@c
  2701     1F7C  3000               	movlw	0
  2702     1F7D  00A1               	movwf	fputc@c+1
  2703     1F7E  0835               	movf	pad@fp,w
  2704     1F7F  00A2               	movwf	fputc@fp
  2705     1F80  160A  158A  27A6  160A  158A  	fcall	_fputc
  2706     1F85                     l2578:
  2707                           
  2708                           ;C:\Program Files\Microchip\xc8\v2.46\pic\sources\c99\common\doprnt.c: 211:         ++i;
  2709     1F85  3001               	movlw	1
  2710     1F86  1283               	bcf	3,5	;RP0=0, select bank0
  2711     1F87  1303               	bcf	3,6	;RP1=0, select bank0
  2712     1F88  07B3               	addwf	pad@i,f
  2713     1F89  1803               	skipnc
  2714     1F8A  0AB4               	incf	pad@i+1,f
  2715     1F8B  3000               	movlw	0
  2716     1F8C  07B4               	addwf	pad@i+1,f
  2717     1F8D                     l2580:
  2718                           
  2719                           ;C:\Program Files\Microchip\xc8\v2.46\pic\sources\c99\common\doprnt.c: 209:     while (i
      +                           < p) {
  2720     1F8D  0834               	movf	pad@i+1,w
  2721     1F8E  3A80               	xorlw	128
  2722     1F8F  00B2               	movwf	??_pad
  2723     1F90  0831               	movf	pad@p+1,w
  2724     1F91  3A80               	xorlw	128
  2725     1F92  0232               	subwf	??_pad,w
  2726     1F93  1D03               	skipz
  2727     1F94  2F97               	goto	u3785
  2728     1F95  0830               	movf	pad@p,w
  2729     1F96  0233               	subwf	pad@i,w
  2730     1F97                     u3785:
  2731     1F97  1C03               	skipc
  2732     1F98  2F9A               	goto	u3781
  2733     1F99  2F9B               	goto	u3780
  2734     1F9A                     u3781:
  2735     1F9A  2F78               	goto	l2576
  2736     1F9B                     u3780:
  2737     1F9B                     l2582:
  2738                           
  2739                           ;C:\Program Files\Microchip\xc8\v2.46\pic\sources\c99\common\doprnt.c: 218:         fput
      +                          s((const char *)buf, fp);
  2740     1F9B  1283               	bcf	3,5	;RP0=0, select bank0
  2741     1F9C  1303               	bcf	3,6	;RP1=0, select bank0
  2742     1F9D  0835               	movf	pad@fp,w
  2743     1F9E  00A8               	movwf	fputs@fp
  2744     1F9F  082F               	movf	pad@buf,w
  2745     1FA0  160A  158A  2742  160A  158A  	fcall	_fputs
  2746     1FA5                     l649:
  2747     1FA5  0008               	return
  2748     1FA6                     __end_of_pad:
  2749                           
  2750                           	psect	text9
  2751     1F42                     __ptext9:	
  2752 ;; *************** function _fputs *****************
  2753 ;; Defined at:
  2754 ;;		line 8 in file "C:\Program Files\Microchip\xc8\v2.46\pic\sources\c99\common\nf_fputs.c"
  2755 ;; Parameters:    Size  Location     Type
  2756 ;;  s               1    wreg     PTR const unsigned char 
  2757 ;;		 -> dbuf(80), 
  2758 ;;  fp              1    8[BANK0 ] PTR struct _IO_FILE
  2759 ;;		 -> sprintf@f(11), 
  2760 ;; Auto vars:     Size  Location     Type
  2761 ;;  s               1   14[BANK0 ] PTR const unsigned char 
  2762 ;;		 -> dbuf(80), 
  2763 ;;  i               2   12[BANK0 ] int 
  2764 ;;  c               1   11[BANK0 ] unsigned char 
  2765 ;; Return value:  Size  Location     Type
  2766 ;;                  2    8[BANK0 ] int 
  2767 ;; Registers used:
  2768 ;;		wreg, fsr0l, fsr0h, status,2, status,0, pclath, cstack
  2769 ;; Tracked objects:
  2770 ;;		On entry : 0/0
  2771 ;;		On exit  : 0/0
  2772 ;;		Unchanged: 0/0
  2773 ;; Data sizes:     COMMON   BANK0   BANK1   BANK3   BANK2
  2774 ;;      Params:         0       1       0       0       0
  2775 ;;      Locals:         0       4       0       0       0
  2776 ;;      Temps:          0       2       0       0       0
  2777 ;;      Totals:         0       7       0       0       0
  2778 ;;Total ram usage:        7 bytes
  2779 ;; Hardware stack levels used: 1
  2780 ;; Hardware stack levels required when called: 5
  2781 ;; This function calls:
  2782 ;;		_fputc
  2783 ;; This function is called by:
  2784 ;;		_pad
  2785 ;; This function uses a non-reentrant model
  2786 ;;
  2787                           
  2788     1F42                     _fputs:	
  2789                           ;psect for function _fputs
  2790                           
  2791                           
  2792                           ;incstack = 0
  2793 ;; hardware stack exceeded
  2794                           ; Regs used in _fputs: [wreg-fsr0h+status,2+status,0+pclath+cstack]
  2795                           ;fputs@s stored from wreg
  2796     1F42  1283               	bcf	3,5	;RP0=0, select bank0
  2797     1F43  1303               	bcf	3,6	;RP1=0, select bank0
  2798     1F44  00AE               	movwf	fputs@s
  2799     1F45                     l2178:
  2800     1F45  01AC               	clrf	fputs@i
  2801     1F46  01AD               	clrf	fputs@i+1
  2802     1F47  2F5E               	goto	l2184
  2803     1F48                     l2180:
  2804     1F48  082B               	movf	fputs@c,w
  2805     1F49  00A9               	movwf	??_fputs
  2806     1F4A  01AA               	clrf	??_fputs+1
  2807     1F4B  0829               	movf	??_fputs,w
  2808     1F4C  00A0               	movwf	fputc@c
  2809     1F4D  082A               	movf	??_fputs+1,w
  2810     1F4E  00A1               	movwf	fputc@c+1
  2811     1F4F  0828               	movf	fputs@fp,w
  2812     1F50  00A2               	movwf	fputc@fp
  2813     1F51  160A  158A  27A6  160A  158A  	fcall	_fputc
  2814     1F56                     l2182:
  2815     1F56  3001               	movlw	1
  2816     1F57  1283               	bcf	3,5	;RP0=0, select bank0
  2817     1F58  1303               	bcf	3,6	;RP1=0, select bank0
  2818     1F59  07AC               	addwf	fputs@i,f
  2819     1F5A  1803               	skipnc
  2820     1F5B  0AAD               	incf	fputs@i+1,f
  2821     1F5C  3000               	movlw	0
  2822     1F5D  07AD               	addwf	fputs@i+1,f
  2823     1F5E                     l2184:
  2824     1F5E  082C               	movf	fputs@i,w
  2825     1F5F  072E               	addwf	fputs@s,w
  2826     1F60  00A9               	movwf	??_fputs
  2827     1F61  0829               	movf	??_fputs,w
  2828     1F62  0084               	movwf	4
  2829     1F63  1783               	bsf	3,7	;select IRP bank2
  2830     1F64  0800               	movf	0,w
  2831     1F65  00AB               	movwf	fputs@c
  2832     1F66  082B               	movf	fputs@c,w
  2833     1F67  1D03               	btfss	3,2
  2834     1F68  2F6A               	goto	u2851
  2835     1F69  2F6B               	goto	u2850
  2836     1F6A                     u2851:
  2837     1F6A  2F48               	goto	l2180
  2838     1F6B                     u2850:
  2839     1F6B                     l793:
  2840     1F6B  0008               	return
  2841     1F6C                     __end_of_fputs:
  2842                           
  2843                           	psect	text10
  2844     1FA6                     __ptext10:	
  2845 ;; *************** function _fputc *****************
  2846 ;; Defined at:
  2847 ;;		line 8 in file "C:\Program Files\Microchip\xc8\v2.46\pic\sources\c99\common\nf_fputc.c"
  2848 ;; Parameters:    Size  Location     Type
  2849 ;;  c               2    0[BANK0 ] int 
  2850 ;;  fp              1    2[BANK0 ] PTR struct _IO_FILE
  2851 ;;		 -> sprintf@f(11), 
  2852 ;; Auto vars:     Size  Location     Type
  2853 ;;		None
  2854 ;; Return value:  Size  Location     Type
  2855 ;;                  2    0[BANK0 ] int 
  2856 ;; Registers used:
  2857 ;;		wreg, fsr0l, fsr0h, status,2, status,0, pclath, cstack
  2858 ;; Tracked objects:
  2859 ;;		On entry : 0/0
  2860 ;;		On exit  : 0/0
  2861 ;;		Unchanged: 0/0
  2862 ;; Data sizes:     COMMON   BANK0   BANK1   BANK3   BANK2
  2863 ;;      Params:         0       3       0       0       0
  2864 ;;      Locals:         0       0       0       0       0
  2865 ;;      Temps:          0       5       0       0       0
  2866 ;;      Totals:         0       8       0       0       0
  2867 ;;Total ram usage:        8 bytes
  2868 ;; Hardware stack levels used: 1
  2869 ;; Hardware stack levels required when called: 4
  2870 ;; This function calls:
  2871 ;;		_putch
  2872 ;; This function is called by:
  2873 ;;		_pad
  2874 ;;		_vfpfcnvrt
  2875 ;;		_fputs
  2876 ;; This function uses a non-reentrant model
  2877 ;;
  2878                           
  2879     1FA6                     _fputc:	
  2880                           ;psect for function _fputc
  2881                           
  2882     1FA6                     l1950:	
  2883                           ;incstack = 0
  2884                           ; Regs used in _fputc: [wreg-fsr0h+status,2+status,0+pclath+cstack]
  2885                           
  2886     1FA6  1283               	bcf	3,5	;RP0=0, select bank0
  2887     1FA7  1303               	bcf	3,6	;RP1=0, select bank0
  2888     1FA8  0822               	movf	fputc@fp,w
  2889     1FA9  1903               	btfsc	3,2
  2890     1FAA  2FAC               	goto	u2321
  2891     1FAB  2FAD               	goto	u2320
  2892     1FAC                     u2321:
  2893     1FAC  2FB2               	goto	l1954
  2894     1FAD                     u2320:
  2895     1FAD                     l1952:
  2896     1FAD  0822               	movf	fputc@fp,w
  2897     1FAE  1D03               	btfss	3,2
  2898     1FAF  2FB1               	goto	u2331
  2899     1FB0  2FB2               	goto	u2330
  2900     1FB1                     u2331:
  2901     1FB1  2FB9               	goto	l1956
  2902     1FB2                     u2330:
  2903     1FB2                     l1954:
  2904     1FB2  0820               	movf	fputc@c,w
  2905     1FB3  120A  118A  2003  160A  158A  	fcall	_putch
  2906     1FB8  2FFF               	goto	l785
  2907     1FB9                     l1956:
  2908     1FB9  0822               	movf	fputc@fp,w
  2909     1FBA  3E09               	addlw	9
  2910     1FBB  0084               	movwf	4
  2911     1FBC  1783               	bsf	3,7	;select IRP bank2
  2912     1FBD  0800               	movf	0,w
  2913     1FBE  00A3               	movwf	??_fputc
  2914     1FBF  0A84               	incf	4,f
  2915     1FC0  0800               	movf	0,w
  2916     1FC1  00A4               	movwf	??_fputc+1
  2917     1FC2  0823               	movf	??_fputc,w
  2918     1FC3  0424               	iorwf	??_fputc+1,w
  2919     1FC4  1903               	btfsc	3,2
  2920     1FC5  2FC7               	goto	u2341
  2921     1FC6  2FC8               	goto	u2340
  2922     1FC7                     u2341:
  2923     1FC7  2FE6               	goto	l1960
  2924     1FC8                     u2340:
  2925     1FC8                     l1958:
  2926     1FC8  0822               	movf	fputc@fp,w
  2927     1FC9  3E09               	addlw	9
  2928     1FCA  0084               	movwf	4
  2929     1FCB  0800               	movf	0,w
  2930     1FCC  00A3               	movwf	??_fputc
  2931     1FCD  0A84               	incf	4,f
  2932     1FCE  0800               	movf	0,w
  2933     1FCF  00A4               	movwf	??_fputc+1
  2934     1FD0  0822               	movf	fputc@fp,w
  2935     1FD1  3E02               	addlw	2
  2936     1FD2  0084               	movwf	4
  2937     1FD3  0800               	movf	0,w
  2938     1FD4  00A5               	movwf	??_fputc+2
  2939     1FD5  0A84               	incf	4,f
  2940     1FD6  0800               	movf	0,w
  2941     1FD7  00A6               	movwf	??_fputc+3
  2942     1FD8  0826               	movf	??_fputc+3,w
  2943     1FD9  3A80               	xorlw	128
  2944     1FDA  00A7               	movwf	??_fputc+4
  2945     1FDB  0824               	movf	??_fputc+1,w
  2946     1FDC  3A80               	xorlw	128
  2947     1FDD  0227               	subwf	??_fputc+4,w
  2948     1FDE  1D03               	skipz
  2949     1FDF  2FE2               	goto	u2355
  2950     1FE0  0823               	movf	??_fputc,w
  2951     1FE1  0225               	subwf	??_fputc+2,w
  2952     1FE2                     u2355:
  2953     1FE2  1803               	skipnc
  2954     1FE3  2FE5               	goto	u2351
  2955     1FE4  2FE6               	goto	u2350
  2956     1FE5                     u2351:
  2957     1FE5  2FFF               	goto	l785
  2958     1FE6                     u2350:
  2959     1FE6                     l1960:
  2960     1FE6  1283               	bcf	3,5	;RP0=0, select bank0
  2961     1FE7  1303               	bcf	3,6	;RP1=0, select bank0
  2962     1FE8  0822               	movf	fputc@fp,w
  2963     1FE9  3E02               	addlw	2
  2964     1FEA  0084               	movwf	4
  2965     1FEB  1783               	bsf	3,7	;select IRP bank2
  2966     1FEC  0800               	movf	0,w
  2967     1FED  00A3               	movwf	??_fputc
  2968     1FEE  0822               	movf	fputc@fp,w
  2969     1FEF  0084               	movwf	4
  2970     1FF0  0800               	movf	0,w
  2971     1FF1  0723               	addwf	??_fputc,w
  2972     1FF2  00A4               	movwf	??_fputc+1
  2973     1FF3  0824               	movf	??_fputc+1,w
  2974     1FF4  0084               	movwf	4
  2975     1FF5  0820               	movf	fputc@c,w
  2976     1FF6  0080               	movwf	0
  2977     1FF7  0822               	movf	fputc@fp,w
  2978     1FF8  3E02               	addlw	2
  2979     1FF9  0084               	movwf	4
  2980     1FFA  3001               	movlw	1
  2981     1FFB  0780               	addwf	0,f
  2982     1FFC  0A84               	incf	4,f
  2983     1FFD  1803               	skipnc
  2984     1FFE  0A80               	incf	0,f
  2985     1FFF                     l785:
  2986     1FFF  0008               	return
  2987     2000                     __end_of_fputc:
  2988                           
  2989                           	psect	text11
  2990     0003                     __ptext11:	
  2991 ;; *************** function _putch *****************
  2992 ;; Defined at:
  2993 ;;		line 7 in file "C:\Program Files\Microchip\xc8\v2.46\pic\sources\c99\common\putch.c"
  2994 ;; Parameters:    Size  Location     Type
  2995 ;;  c               1    wreg     unsigned char 
  2996 ;; Auto vars:     Size  Location     Type
  2997 ;;  c               1    0[COMMON] unsigned char 
  2998 ;; Return value:  Size  Location     Type
  2999 ;;                  1    wreg      void 
  3000 ;; Registers used:
  3001 ;;		wreg
  3002 ;; Tracked objects:
  3003 ;;		On entry : 0/0
  3004 ;;		On exit  : 0/0
  3005 ;;		Unchanged: 0/0
  3006 ;; Data sizes:     COMMON   BANK0   BANK1   BANK3   BANK2
  3007 ;;      Params:         0       0       0       0       0
  3008 ;;      Locals:         0       0       0       0       0
  3009 ;;      Temps:          0       0       0       0       0
  3010 ;;      Totals:         0       0       0       0       0
  3011 ;;Total ram usage:        0 bytes
  3012 ;; Hardware stack levels used: 1
  3013 ;; Hardware stack levels required when called: 3
  3014 ;; This function calls:
  3015 ;;		Nothing
  3016 ;; This function is called by:
  3017 ;;		_fputc
  3018 ;; This function uses a non-reentrant model
  3019 ;;
  3020                           
  3021     0003                     _putch:	
  3022                           ;psect for function _putch
  3023                           
  3024     0003                     l796:	
  3025                           ;incstack = 0
  3026                           ; Regs used in _putch: [wreg]
  3027                           
  3028     0003  0008               	return
  3029     0004                     __end_of_putch:
  3030                           
  3031                           	psect	text12
  3032     1E9D                     __ptext12:	
  3033 ;; *************** function _memcpy *****************
  3034 ;; Defined at:
  3035 ;;		line 4 in file "C:\Program Files\Microchip\xc8\v2.46\pic\sources\c99\common\memcpy.c"
  3036 ;; Parameters:    Size  Location     Type
  3037 ;;  d1              1    wreg     PTR void 
  3038 ;;		 -> dbuf(80), 
  3039 ;;  s1              1    0[BANK0 ] PTR const void 
  3040 ;;		 -> dbuf(80), 
  3041 ;;  n               2    1[BANK0 ] unsigned int 
  3042 ;; Auto vars:     Size  Location     Type
  3043 ;;  d1              1    4[BANK0 ] PTR void 
  3044 ;;		 -> dbuf(80), 
  3045 ;;  s               1    6[BANK0 ] PTR const unsigned char 
  3046 ;;		 -> dbuf(80), 
  3047 ;;  d               1    5[BANK0 ] PTR unsigned char 
  3048 ;;		 -> dbuf(80), 
  3049 ;;  tmp             1    3[BANK0 ] unsigned char 
  3050 ;; Return value:  Size  Location     Type
  3051 ;;                  1    wreg      PTR void 
  3052 ;; Registers used:
  3053 ;;		wreg, fsr0l, fsr0h, status,2, status,0, btemp+1
  3054 ;; Tracked objects:
  3055 ;;		On entry : 0/0
  3056 ;;		On exit  : 0/0
  3057 ;;		Unchanged: 0/0
  3058 ;; Data sizes:     COMMON   BANK0   BANK1   BANK3   BANK2
  3059 ;;      Params:         0       3       0       0       0
  3060 ;;      Locals:         0       4       0       0       0
  3061 ;;      Temps:          0       0       0       0       0
  3062 ;;      Totals:         0       7       0       0       0
  3063 ;;Total ram usage:        7 bytes
  3064 ;; Hardware stack levels used: 1
  3065 ;; Hardware stack levels required when called: 3
  3066 ;; This function calls:
  3067 ;;		Nothing
  3068 ;; This function is called by:
  3069 ;;		_efgtoa
  3070 ;; This function uses a non-reentrant model
  3071 ;;
  3072                           
  3073     1E9D                     _memcpy:	
  3074                           ;psect for function _memcpy
  3075                           
  3076                           
  3077                           ;incstack = 0
  3078                           ; Regs used in _memcpy: [wreg-fsr0h+status,2+status,0+btemp+1]
  3079                           ;memcpy@d1 stored from wreg
  3080     1E9D  1283               	bcf	3,5	;RP0=0, select bank0
  3081     1E9E  1303               	bcf	3,6	;RP1=0, select bank0
  3082     1E9F  00A4               	movwf	memcpy@d1
  3083     1EA0                     l2650:
  3084     1EA0  0820               	movf	memcpy@s1,w
  3085     1EA1  00A6               	movwf	memcpy@s
  3086     1EA2  0824               	movf	memcpy@d1,w
  3087     1EA3  00A5               	movwf	memcpy@d
  3088     1EA4  2EB6               	goto	l2658
  3089     1EA5                     l2652:
  3090     1EA5  0826               	movf	memcpy@s,w
  3091     1EA6  0084               	movwf	4
  3092     1EA7  1783               	bsf	3,7	;select IRP bank2
  3093     1EA8  0800               	movf	0,w
  3094     1EA9  00A3               	movwf	memcpy@tmp
  3095     1EAA                     l2654:
  3096     1EAA  3001               	movlw	1
  3097     1EAB  00FF               	movwf	btemp+1
  3098     1EAC  087F               	movf	btemp+1,w
  3099     1EAD  07A6               	addwf	memcpy@s,f
  3100     1EAE                     l2656:
  3101     1EAE  0825               	movf	memcpy@d,w
  3102     1EAF  0084               	movwf	4
  3103     1EB0  0823               	movf	memcpy@tmp,w
  3104     1EB1  0080               	movwf	0
  3105     1EB2  3001               	movlw	1
  3106     1EB3  00FF               	movwf	btemp+1
  3107     1EB4  087F               	movf	btemp+1,w
  3108     1EB5  07A5               	addwf	memcpy@d,f
  3109     1EB6                     l2658:
  3110     1EB6  3001               	movlw	1
  3111     1EB7  02A1               	subwf	memcpy@n,f
  3112     1EB8  3000               	movlw	0
  3113     1EB9  1C03               	skipc
  3114     1EBA  03A2               	decf	memcpy@n+1,f
  3115     1EBB  02A2               	subwf	memcpy@n+1,f
  3116     1EBC  0A21               	incf	memcpy@n,w
  3117     1EBD  1D03               	skipz
  3118     1EBE  2EC3               	goto	u4011
  3119     1EBF  0A22               	incf	memcpy@n+1,w
  3120     1EC0  1D03               	btfss	3,2
  3121     1EC1  2EC3               	goto	u4011
  3122     1EC2  2EC4               	goto	u4010
  3123     1EC3                     u4011:
  3124     1EC3  2EA5               	goto	l2652
  3125     1EC4                     u4010:
  3126     1EC4                     l773:
  3127     1EC4  0008               	return
  3128     1EC5                     __end_of_memcpy:
  3129                           
  3130                           	psect	text13
  3131     1DBB                     __ptext13:	
  3132 ;; *************** function _labs *****************
  3133 ;; Defined at:
  3134 ;;		line 1 in file "C:\Program Files\Microchip\xc8\v2.46\pic\sources\c99\common\labs.c"
  3135 ;; Parameters:    Size  Location     Type
  3136 ;;  a               4    0[BANK0 ] long 
  3137 ;; Auto vars:     Size  Location     Type
  3138 ;;		None
  3139 ;; Return value:  Size  Location     Type
  3140 ;;                  4    0[BANK0 ] long 
  3141 ;; Registers used:
  3142 ;;		wreg, status,2, status,0
  3143 ;; Tracked objects:
  3144 ;;		On entry : 0/0
  3145 ;;		On exit  : 0/0
  3146 ;;		Unchanged: 0/0
  3147 ;; Data sizes:     COMMON   BANK0   BANK1   BANK3   BANK2
  3148 ;;      Params:         0       4       0       0       0
  3149 ;;      Locals:         0       0       0       0       0
  3150 ;;      Temps:          0       0       0       0       0
  3151 ;;      Totals:         0       4       0       0       0
  3152 ;;Total ram usage:        4 bytes
  3153 ;; Hardware stack levels used: 1
  3154 ;; Hardware stack levels required when called: 3
  3155 ;; This function calls:
  3156 ;;		Nothing
  3157 ;; This function is called by:
  3158 ;;		_efgtoa
  3159 ;; This function uses a non-reentrant model
  3160 ;;
  3161                           
  3162     1DBB                     _labs:	
  3163                           ;psect for function _labs
  3164                           
  3165     1DBB                     l2612:	
  3166                           ;incstack = 0
  3167                           ; Regs used in _labs: [wreg+status,2+status,0]
  3168                           
  3169     1DBB  1283               	bcf	3,5	;RP0=0, select bank0
  3170     1DBC  1303               	bcf	3,6	;RP1=0, select bank0
  3171     1DBD  1BA3               	btfsc	labs@a+3,7
  3172     1DBE  2DC0               	goto	u3881
  3173     1DBF  2DC1               	goto	u3880
  3174     1DC0                     u3881:
  3175     1DC0  2DC2               	goto	l2616
  3176     1DC1                     u3880:
  3177     1DC1                     l2614:
  3178     1DC1  2DD1               	goto	l767
  3179     1DC2                     l2616:
  3180     1DC2  0920               	comf	labs@a,w
  3181     1DC3  00A0               	movwf	?_labs
  3182     1DC4  0921               	comf	labs@a+1,w
  3183     1DC5  00A1               	movwf	?_labs+1
  3184     1DC6  0922               	comf	labs@a+2,w
  3185     1DC7  00A2               	movwf	?_labs+2
  3186     1DC8  0923               	comf	labs@a+3,w
  3187     1DC9  00A3               	movwf	?_labs+3
  3188     1DCA  0AA0               	incf	?_labs,f
  3189     1DCB  1903               	skipnz
  3190     1DCC  0AA1               	incf	?_labs+1,f
  3191     1DCD  1903               	skipnz
  3192     1DCE  0AA2               	incf	?_labs+2,f
  3193     1DCF  1903               	skipnz
  3194     1DD0  0AA3               	incf	?_labs+3,f
  3195     1DD1                     l767:
  3196     1DD1  0008               	return
  3197     1DD2                     __end_of_labs:
  3198                           
  3199                           	psect	text14
  3200     0879                     __ptext14:	
  3201 ;; *************** function _floorf *****************
  3202 ;; Defined at:
  3203 ;;		line 3 in file "C:\Program Files\Microchip\xc8\v2.46\pic\sources\c99\common\floorf.c"
  3204 ;; Parameters:    Size  Location     Type
  3205 ;;  x               4   66[BANK0 ] float 
  3206 ;; Auto vars:     Size  Location     Type
  3207 ;;  u               4    6[BANK1 ] struct .
  3208 ;;  m               4    0[BANK1 ] unsigned long 
  3209 ;;  e               2    4[BANK1 ] int 
  3210 ;; Return value:  Size  Location     Type
  3211 ;;                  4   66[BANK0 ] float 
  3212 ;; Registers used:
  3213 ;;		wreg, status,2, status,0, btemp+1
  3214 ;; Tracked objects:
  3215 ;;		On entry : 0/0
  3216 ;;		On exit  : 0/0
  3217 ;;		Unchanged: 0/0
  3218 ;; Data sizes:     COMMON   BANK0   BANK1   BANK3   BANK2
  3219 ;;      Params:         0       4       0       0       0
  3220 ;;      Locals:         0       0      10       0       0
  3221 ;;      Temps:          0       6       0       0       0
  3222 ;;      Totals:         0      10      10       0       0
  3223 ;;Total ram usage:       20 bytes
  3224 ;; Hardware stack levels used: 1
  3225 ;; Hardware stack levels required when called: 3
  3226 ;; This function calls:
  3227 ;;		Nothing
  3228 ;; This function is called by:
  3229 ;;		_efgtoa
  3230 ;; This function uses a non-reentrant model
  3231 ;;
  3232                           
  3233     0879                     _floorf:	
  3234                           ;psect for function _floorf
  3235                           
  3236     0879                     l2620:	
  3237                           ;incstack = 0
  3238                           ; Regs used in _floorf: [wreg+status,2+status,0+btemp+1]
  3239                           
  3240     0879  1683               	bsf	3,5	;RP0=1, select bank3
  3241     087A  1703               	bsf	3,6	;RP1=1, select bank3
  3242     087B  084A               	movf	(floorf@F521+3)^(0+384),w
  3243     087C  1683               	bsf	3,5	;RP0=1, select bank1
  3244     087D  1303               	bcf	3,6	;RP1=0, select bank1
  3245     087E  00A9               	movwf	(floorf@u+3)^(0+128)
  3246     087F  1683               	bsf	3,5	;RP0=1, select bank3
  3247     0880  1703               	bsf	3,6	;RP1=1, select bank3
  3248     0881  0849               	movf	(floorf@F521+2)^(0+384),w
  3249     0882  1683               	bsf	3,5	;RP0=1, select bank1
  3250     0883  1303               	bcf	3,6	;RP1=0, select bank1
  3251     0884  00A8               	movwf	(floorf@u+2)^(0+128)
  3252     0885  1683               	bsf	3,5	;RP0=1, select bank3
  3253     0886  1703               	bsf	3,6	;RP1=1, select bank3
  3254     0887  0848               	movf	(floorf@F521+1)^(0+384),w
  3255     0888  1683               	bsf	3,5	;RP0=1, select bank1
  3256     0889  1303               	bcf	3,6	;RP1=0, select bank1
  3257     088A  00A7               	movwf	(floorf@u+1)^(0+128)
  3258     088B  1683               	bsf	3,5	;RP0=1, select bank3
  3259     088C  1703               	bsf	3,6	;RP1=1, select bank3
  3260     088D  0847               	movf	floorf@F521^(0+384),w
  3261     088E  1683               	bsf	3,5	;RP0=1, select bank1
  3262     088F  1303               	bcf	3,6	;RP1=0, select bank1
  3263     0890  00A6               	movwf	floorf@u^(0+128)
  3264     0891  1283               	bcf	3,5	;RP0=0, select bank0
  3265     0892  1303               	bcf	3,6	;RP1=0, select bank0
  3266     0893  0865               	movf	floorf@x+3,w
  3267     0894  1683               	bsf	3,5	;RP0=1, select bank1
  3268     0895  1303               	bcf	3,6	;RP1=0, select bank1
  3269     0896  00A9               	movwf	(floorf@u+3)^(0+128)
  3270     0897  1283               	bcf	3,5	;RP0=0, select bank0
  3271     0898  1303               	bcf	3,6	;RP1=0, select bank0
  3272     0899  0864               	movf	floorf@x+2,w
  3273     089A  1683               	bsf	3,5	;RP0=1, select bank1
  3274     089B  1303               	bcf	3,6	;RP1=0, select bank1
  3275     089C  00A8               	movwf	(floorf@u+2)^(0+128)
  3276     089D  1283               	bcf	3,5	;RP0=0, select bank0
  3277     089E  1303               	bcf	3,6	;RP1=0, select bank0
  3278     089F  0863               	movf	floorf@x+1,w
  3279     08A0  1683               	bsf	3,5	;RP0=1, select bank1
  3280     08A1  1303               	bcf	3,6	;RP1=0, select bank1
  3281     08A2  00A7               	movwf	(floorf@u+1)^(0+128)
  3282     08A3  1283               	bcf	3,5	;RP0=0, select bank0
  3283     08A4  1303               	bcf	3,6	;RP1=0, select bank0
  3284     08A5  0862               	movf	floorf@x,w
  3285     08A6  1683               	bsf	3,5	;RP0=1, select bank1
  3286     08A7  1303               	bcf	3,6	;RP1=0, select bank1
  3287     08A8  00A6               	movwf	floorf@u^(0+128)
  3288     08A9                     l2622:
  3289     08A9  0826               	movf	floorf@u^(0+128),w
  3290     08AA  1283               	bcf	3,5	;RP0=0, select bank0
  3291     08AB  1303               	bcf	3,6	;RP1=0, select bank0
  3292     08AC  00E6               	movwf	??_floorf
  3293     08AD  1683               	bsf	3,5	;RP0=1, select bank1
  3294     08AE  1303               	bcf	3,6	;RP1=0, select bank1
  3295     08AF  0827               	movf	(floorf@u+1)^(0+128),w
  3296     08B0  1283               	bcf	3,5	;RP0=0, select bank0
  3297     08B1  1303               	bcf	3,6	;RP1=0, select bank0
  3298     08B2  00E7               	movwf	??_floorf+1
  3299     08B3  1683               	bsf	3,5	;RP0=1, select bank1
  3300     08B4  1303               	bcf	3,6	;RP1=0, select bank1
  3301     08B5  0828               	movf	(floorf@u+2)^(0+128),w
  3302     08B6  1283               	bcf	3,5	;RP0=0, select bank0
  3303     08B7  1303               	bcf	3,6	;RP1=0, select bank0
  3304     08B8  00E8               	movwf	??_floorf+2
  3305     08B9  1683               	bsf	3,5	;RP0=1, select bank1
  3306     08BA  1303               	bcf	3,6	;RP1=0, select bank1
  3307     08BB  0829               	movf	(floorf@u+3)^(0+128),w
  3308     08BC  1283               	bcf	3,5	;RP0=0, select bank0
  3309     08BD  1303               	bcf	3,6	;RP1=0, select bank0
  3310     08BE  00E9               	movwf	??_floorf+3
  3311     08BF  3017               	movlw	23
  3312     08C0                     u3895:
  3313     08C0  1003               	clrc
  3314     08C1  0CE9               	rrf	??_floorf+3,f
  3315     08C2  0CE8               	rrf	??_floorf+2,f
  3316     08C3  0CE7               	rrf	??_floorf+1,f
  3317     08C4  0CE6               	rrf	??_floorf,f
  3318     08C5                     u3890:
  3319     08C5  3EFF               	addlw	-1
  3320     08C6  1D03               	skipz
  3321     08C7  28C0               	goto	u3895
  3322     08C8  30FF               	movlw	255
  3323     08C9  0566               	andwf	??_floorf,w
  3324     08CA  00EA               	movwf	??_floorf+4
  3325     08CB  3000               	movlw	0
  3326     08CC  0567               	andwf	??_floorf+1,w
  3327     08CD  00EB               	movwf	??_floorf+5
  3328     08CE  086A               	movf	??_floorf+4,w
  3329     08CF  3E81               	addlw	129
  3330     08D0  1683               	bsf	3,5	;RP0=1, select bank1
  3331     08D1  1303               	bcf	3,6	;RP1=0, select bank1
  3332     08D2  00A4               	movwf	floorf@e^(0+128)
  3333     08D3  1283               	bcf	3,5	;RP0=0, select bank0
  3334     08D4  1303               	bcf	3,6	;RP1=0, select bank0
  3335     08D5  086B               	movf	??_floorf+5,w
  3336     08D6  1803               	skipnc
  3337     08D7  3E01               	addlw	1
  3338     08D8  3EFF               	addlw	255
  3339     08D9  1683               	bsf	3,5	;RP0=1, select bank1
  3340     08DA  1303               	bcf	3,6	;RP1=0, select bank1
  3341     08DB  00A5               	movwf	(floorf@e+1)^(0+128)
  3342     08DC                     l2624:
  3343     08DC  0825               	movf	(floorf@e+1)^(0+128),w
  3344     08DD  3A80               	xorlw	128
  3345     08DE  00FF               	movwf	btemp+1
  3346     08DF  3080               	movlw	128
  3347     08E0  027F               	subwf	btemp+1,w
  3348     08E1  1D03               	skipz
  3349     08E2  28E5               	goto	u3905
  3350     08E3  3017               	movlw	23
  3351     08E4  0224               	subwf	floorf@e^(0+128),w
  3352     08E5                     u3905:
  3353     08E5  1C03               	skipc
  3354     08E6  28E8               	goto	u3901
  3355     08E7  28E9               	goto	u3900
  3356     08E8                     u3901:
  3357     08E8  28EA               	goto	l752
  3358     08E9                     u3900:
  3359     08E9                     l2626:
  3360     08E9  2A2B               	goto	l753
  3361     08EA                     l752:
  3362     08EA  1683               	bsf	3,5	;RP0=1, select bank1
  3363     08EB  1303               	bcf	3,6	;RP1=0, select bank1
  3364     08EC  1BA5               	btfsc	(floorf@e+1)^(0+128),7
  3365     08ED  28EF               	goto	u3911
  3366     08EE  28F0               	goto	u3910
  3367     08EF                     u3911:
  3368     08EF  29AE               	goto	l2640
  3369     08F0                     u3910:
  3370     08F0                     l2628:
  3371     08F0  0A24               	incf	floorf@e^(0+128),w
  3372     08F1  00FF               	movwf	btemp+1
  3373     08F2  30FF               	movlw	255
  3374     08F3  1283               	bcf	3,5	;RP0=0, select bank0
  3375     08F4  1303               	bcf	3,6	;RP1=0, select bank0
  3376     08F5  00E6               	movwf	??_floorf
  3377     08F6  30FF               	movlw	255
  3378     08F7  00E7               	movwf	??_floorf+1
  3379     08F8  307F               	movlw	127
  3380     08F9  00E8               	movwf	??_floorf+2
  3381     08FA  3000               	movlw	0
  3382     08FB  00E9               	movwf	??_floorf+3
  3383     08FC  2902               	goto	u3920
  3384     08FD                     u3925:
  3385     08FD  0D69               	rlf	??_floorf+3,w
  3386     08FE  0CE9               	rrf	??_floorf+3,f
  3387     08FF  0CE8               	rrf	??_floorf+2,f
  3388     0900  0CE7               	rrf	??_floorf+1,f
  3389     0901  0CE6               	rrf	??_floorf,f
  3390     0902                     u3920:
  3391     0902  0BFF               	decfsz	btemp+1,f
  3392     0903  28FD               	goto	u3925
  3393     0904  0869               	movf	??_floorf+3,w
  3394     0905  1683               	bsf	3,5	;RP0=1, select bank1
  3395     0906  1303               	bcf	3,6	;RP1=0, select bank1
  3396     0907  00A3               	movwf	(floorf@m+3)^(0+128)
  3397     0908  1283               	bcf	3,5	;RP0=0, select bank0
  3398     0909  1303               	bcf	3,6	;RP1=0, select bank0
  3399     090A  0868               	movf	??_floorf+2,w
  3400     090B  1683               	bsf	3,5	;RP0=1, select bank1
  3401     090C  1303               	bcf	3,6	;RP1=0, select bank1
  3402     090D  00A2               	movwf	(floorf@m+2)^(0+128)
  3403     090E  1283               	bcf	3,5	;RP0=0, select bank0
  3404     090F  1303               	bcf	3,6	;RP1=0, select bank0
  3405     0910  0867               	movf	??_floorf+1,w
  3406     0911  1683               	bsf	3,5	;RP0=1, select bank1
  3407     0912  1303               	bcf	3,6	;RP1=0, select bank1
  3408     0913  00A1               	movwf	(floorf@m+1)^(0+128)
  3409     0914  1283               	bcf	3,5	;RP0=0, select bank0
  3410     0915  1303               	bcf	3,6	;RP1=0, select bank0
  3411     0916  0866               	movf	??_floorf,w
  3412     0917  1683               	bsf	3,5	;RP0=1, select bank1
  3413     0918  1303               	bcf	3,6	;RP1=0, select bank1
  3414     0919  00A0               	movwf	floorf@m^(0+128)
  3415     091A                     l2630:
  3416     091A  0820               	movf	floorf@m^(0+128),w
  3417     091B  0526               	andwf	floorf@u^(0+128),w
  3418     091C  1283               	bcf	3,5	;RP0=0, select bank0
  3419     091D  1303               	bcf	3,6	;RP1=0, select bank0
  3420     091E  00E6               	movwf	??_floorf
  3421     091F  1683               	bsf	3,5	;RP0=1, select bank1
  3422     0920  1303               	bcf	3,6	;RP1=0, select bank1
  3423     0921  0821               	movf	(floorf@m+1)^(0+128),w
  3424     0922  0527               	andwf	(floorf@u+1)^(0+128),w
  3425     0923  1283               	bcf	3,5	;RP0=0, select bank0
  3426     0924  1303               	bcf	3,6	;RP1=0, select bank0
  3427     0925  00E7               	movwf	??_floorf+1
  3428     0926  1683               	bsf	3,5	;RP0=1, select bank1
  3429     0927  1303               	bcf	3,6	;RP1=0, select bank1
  3430     0928  0822               	movf	(floorf@m+2)^(0+128),w
  3431     0929  0528               	andwf	(floorf@u+2)^(0+128),w
  3432     092A  1283               	bcf	3,5	;RP0=0, select bank0
  3433     092B  1303               	bcf	3,6	;RP1=0, select bank0
  3434     092C  00E8               	movwf	??_floorf+2
  3435     092D  1683               	bsf	3,5	;RP0=1, select bank1
  3436     092E  1303               	bcf	3,6	;RP1=0, select bank1
  3437     092F  0823               	movf	(floorf@m+3)^(0+128),w
  3438     0930  0529               	andwf	(floorf@u+3)^(0+128),w
  3439     0931  1283               	bcf	3,5	;RP0=0, select bank0
  3440     0932  1303               	bcf	3,6	;RP1=0, select bank0
  3441     0933  00E9               	movwf	??_floorf+3
  3442     0934  0869               	movf	??_floorf+3,w
  3443     0935  0468               	iorwf	??_floorf+2,w
  3444     0936  0467               	iorwf	??_floorf+1,w
  3445     0937  0466               	iorwf	??_floorf,w
  3446     0938  1D03               	skipz
  3447     0939  293B               	goto	u3931
  3448     093A  293C               	goto	u3930
  3449     093B                     u3931:
  3450     093B  293D               	goto	l2634
  3451     093C                     u3930:
  3452     093C  28E9               	goto	l2626
  3453     093D                     l2634:
  3454     093D  1683               	bsf	3,5	;RP0=1, select bank1
  3455     093E  1303               	bcf	3,6	;RP1=0, select bank1
  3456     093F  0826               	movf	floorf@u^(0+128),w
  3457     0940  1283               	bcf	3,5	;RP0=0, select bank0
  3458     0941  1303               	bcf	3,6	;RP1=0, select bank0
  3459     0942  00E6               	movwf	??_floorf
  3460     0943  1683               	bsf	3,5	;RP0=1, select bank1
  3461     0944  1303               	bcf	3,6	;RP1=0, select bank1
  3462     0945  0827               	movf	(floorf@u+1)^(0+128),w
  3463     0946  1283               	bcf	3,5	;RP0=0, select bank0
  3464     0947  1303               	bcf	3,6	;RP1=0, select bank0
  3465     0948  00E7               	movwf	??_floorf+1
  3466     0949  1683               	bsf	3,5	;RP0=1, select bank1
  3467     094A  1303               	bcf	3,6	;RP1=0, select bank1
  3468     094B  0828               	movf	(floorf@u+2)^(0+128),w
  3469     094C  1283               	bcf	3,5	;RP0=0, select bank0
  3470     094D  1303               	bcf	3,6	;RP1=0, select bank0
  3471     094E  00E8               	movwf	??_floorf+2
  3472     094F  1683               	bsf	3,5	;RP0=1, select bank1
  3473     0950  1303               	bcf	3,6	;RP1=0, select bank1
  3474     0951  0829               	movf	(floorf@u+3)^(0+128),w
  3475     0952  1283               	bcf	3,5	;RP0=0, select bank0
  3476     0953  1303               	bcf	3,6	;RP1=0, select bank0
  3477     0954  00E9               	movwf	??_floorf+3
  3478     0955  301F               	movlw	31
  3479     0956                     u3945:
  3480     0956  1003               	clrc
  3481     0957  0CE9               	rrf	??_floorf+3,f
  3482     0958  0CE8               	rrf	??_floorf+2,f
  3483     0959  0CE7               	rrf	??_floorf+1,f
  3484     095A  0CE6               	rrf	??_floorf,f
  3485     095B                     u3940:
  3486     095B  3EFF               	addlw	-1
  3487     095C  1D03               	skipz
  3488     095D  2956               	goto	u3945
  3489     095E  0869               	movf	??_floorf+3,w
  3490     095F  0468               	iorwf	??_floorf+2,w
  3491     0960  0467               	iorwf	??_floorf+1,w
  3492     0961  0466               	iorwf	??_floorf,w
  3493     0962  1903               	skipnz
  3494     0963  2965               	goto	u3951
  3495     0964  2966               	goto	u3950
  3496     0965                     u3951:
  3497     0965  297F               	goto	l2638
  3498     0966                     u3950:
  3499     0966                     l2636:
  3500     0966  1683               	bsf	3,5	;RP0=1, select bank1
  3501     0967  1303               	bcf	3,6	;RP1=0, select bank1
  3502     0968  0820               	movf	floorf@m^(0+128),w
  3503     0969  07A6               	addwf	floorf@u^(0+128),f
  3504     096A  0821               	movf	(floorf@m+1)^(0+128),w
  3505     096B  1103               	clrz
  3506     096C  1803               	skipnc
  3507     096D  3E01               	addlw	1
  3508     096E  1903               	skipnz
  3509     096F  2971               	goto	u3961
  3510     0970  07A7               	addwf	(floorf@u+1)^(0+128),f
  3511     0971                     u3961:
  3512     0971  0822               	movf	(floorf@m+2)^(0+128),w
  3513     0972  1103               	clrz
  3514     0973  1803               	skipnc
  3515     0974  3E01               	addlw	1
  3516     0975  1903               	skipnz
  3517     0976  2978               	goto	u3962
  3518     0977  07A8               	addwf	(floorf@u+2)^(0+128),f
  3519     0978                     u3962:
  3520     0978  0823               	movf	(floorf@m+3)^(0+128),w
  3521     0979  1103               	clrz
  3522     097A  1803               	skipnc
  3523     097B  3E01               	addlw	1
  3524     097C  1903               	skipnz
  3525     097D  297F               	goto	u3963
  3526     097E  07A9               	addwf	(floorf@u+3)^(0+128),f
  3527     097F                     u3963:
  3528     097F                     l2638:
  3529     097F  1683               	bsf	3,5	;RP0=1, select bank1
  3530     0980  1303               	bcf	3,6	;RP1=0, select bank1
  3531     0981  0920               	comf	floorf@m^(0+128),w
  3532     0982  1283               	bcf	3,5	;RP0=0, select bank0
  3533     0983  1303               	bcf	3,6	;RP1=0, select bank0
  3534     0984  00E6               	movwf	??_floorf
  3535     0985  1683               	bsf	3,5	;RP0=1, select bank1
  3536     0986  1303               	bcf	3,6	;RP1=0, select bank1
  3537     0987  0921               	comf	(floorf@m+1)^(0+128),w
  3538     0988  1283               	bcf	3,5	;RP0=0, select bank0
  3539     0989  1303               	bcf	3,6	;RP1=0, select bank0
  3540     098A  00E7               	movwf	??_floorf+1
  3541     098B  1683               	bsf	3,5	;RP0=1, select bank1
  3542     098C  1303               	bcf	3,6	;RP1=0, select bank1
  3543     098D  0922               	comf	(floorf@m+2)^(0+128),w
  3544     098E  1283               	bcf	3,5	;RP0=0, select bank0
  3545     098F  1303               	bcf	3,6	;RP1=0, select bank0
  3546     0990  00E8               	movwf	??_floorf+2
  3547     0991  1683               	bsf	3,5	;RP0=1, select bank1
  3548     0992  1303               	bcf	3,6	;RP1=0, select bank1
  3549     0993  0923               	comf	(floorf@m+3)^(0+128),w
  3550     0994  1283               	bcf	3,5	;RP0=0, select bank0
  3551     0995  1303               	bcf	3,6	;RP1=0, select bank0
  3552     0996  00E9               	movwf	??_floorf+3
  3553     0997  0866               	movf	??_floorf,w
  3554     0998  1683               	bsf	3,5	;RP0=1, select bank1
  3555     0999  1303               	bcf	3,6	;RP1=0, select bank1
  3556     099A  05A6               	andwf	floorf@u^(0+128),f
  3557     099B  1283               	bcf	3,5	;RP0=0, select bank0
  3558     099C  1303               	bcf	3,6	;RP1=0, select bank0
  3559     099D  0867               	movf	??_floorf+1,w
  3560     099E  1683               	bsf	3,5	;RP0=1, select bank1
  3561     099F  1303               	bcf	3,6	;RP1=0, select bank1
  3562     09A0  05A7               	andwf	(floorf@u+1)^(0+128),f
  3563     09A1  1283               	bcf	3,5	;RP0=0, select bank0
  3564     09A2  1303               	bcf	3,6	;RP1=0, select bank0
  3565     09A3  0868               	movf	??_floorf+2,w
  3566     09A4  1683               	bsf	3,5	;RP0=1, select bank1
  3567     09A5  1303               	bcf	3,6	;RP1=0, select bank1
  3568     09A6  05A8               	andwf	(floorf@u+2)^(0+128),f
  3569     09A7  1283               	bcf	3,5	;RP0=0, select bank0
  3570     09A8  1303               	bcf	3,6	;RP1=0, select bank0
  3571     09A9  0869               	movf	??_floorf+3,w
  3572     09AA  1683               	bsf	3,5	;RP0=1, select bank1
  3573     09AB  1303               	bcf	3,6	;RP1=0, select bank1
  3574     09AC  05A9               	andwf	(floorf@u+3)^(0+128),f
  3575     09AD  2A13               	goto	l757
  3576     09AE                     l2640:
  3577     09AE  0826               	movf	floorf@u^(0+128),w
  3578     09AF  1283               	bcf	3,5	;RP0=0, select bank0
  3579     09B0  1303               	bcf	3,6	;RP1=0, select bank0
  3580     09B1  00E6               	movwf	??_floorf
  3581     09B2  1683               	bsf	3,5	;RP0=1, select bank1
  3582     09B3  1303               	bcf	3,6	;RP1=0, select bank1
  3583     09B4  0827               	movf	(floorf@u+1)^(0+128),w
  3584     09B5  1283               	bcf	3,5	;RP0=0, select bank0
  3585     09B6  1303               	bcf	3,6	;RP1=0, select bank0
  3586     09B7  00E7               	movwf	??_floorf+1
  3587     09B8  1683               	bsf	3,5	;RP0=1, select bank1
  3588     09B9  1303               	bcf	3,6	;RP1=0, select bank1
  3589     09BA  0828               	movf	(floorf@u+2)^(0+128),w
  3590     09BB  1283               	bcf	3,5	;RP0=0, select bank0
  3591     09BC  1303               	bcf	3,6	;RP1=0, select bank0
  3592     09BD  00E8               	movwf	??_floorf+2
  3593     09BE  1683               	bsf	3,5	;RP0=1, select bank1
  3594     09BF  1303               	bcf	3,6	;RP1=0, select bank1
  3595     09C0  0829               	movf	(floorf@u+3)^(0+128),w
  3596     09C1  1283               	bcf	3,5	;RP0=0, select bank0
  3597     09C2  1303               	bcf	3,6	;RP1=0, select bank0
  3598     09C3  00E9               	movwf	??_floorf+3
  3599     09C4  301F               	movlw	31
  3600     09C5                     u3975:
  3601     09C5  1003               	clrc
  3602     09C6  0CE9               	rrf	??_floorf+3,f
  3603     09C7  0CE8               	rrf	??_floorf+2,f
  3604     09C8  0CE7               	rrf	??_floorf+1,f
  3605     09C9  0CE6               	rrf	??_floorf,f
  3606     09CA                     u3970:
  3607     09CA  3EFF               	addlw	-1
  3608     09CB  1D03               	skipz
  3609     09CC  29C5               	goto	u3975
  3610     09CD  0869               	movf	??_floorf+3,w
  3611     09CE  0468               	iorwf	??_floorf+2,w
  3612     09CF  0467               	iorwf	??_floorf+1,w
  3613     09D0  0466               	iorwf	??_floorf,w
  3614     09D1  1D03               	skipz
  3615     09D2  29D4               	goto	u3981
  3616     09D3  29D5               	goto	u3980
  3617     09D4                     u3981:
  3618     09D4  29E0               	goto	l2644
  3619     09D5                     u3980:
  3620     09D5                     l2642:
  3621     09D5  3000               	movlw	0
  3622     09D6  1683               	bsf	3,5	;RP0=1, select bank1
  3623     09D7  1303               	bcf	3,6	;RP1=0, select bank1
  3624     09D8  00A9               	movwf	(floorf@u+3)^(0+128)
  3625     09D9  3000               	movlw	0
  3626     09DA  00A8               	movwf	(floorf@u+2)^(0+128)
  3627     09DB  3000               	movlw	0
  3628     09DC  00A7               	movwf	(floorf@u+1)^(0+128)
  3629     09DD  3000               	movlw	0
  3630     09DE  00A6               	movwf	floorf@u^(0+128)
  3631     09DF  2A13               	goto	l757
  3632     09E0                     l2644:
  3633     09E0  1683               	bsf	3,5	;RP0=1, select bank1
  3634     09E1  1303               	bcf	3,6	;RP1=0, select bank1
  3635     09E2  0826               	movf	floorf@u^(0+128),w
  3636     09E3  1283               	bcf	3,5	;RP0=0, select bank0
  3637     09E4  1303               	bcf	3,6	;RP1=0, select bank0
  3638     09E5  00E6               	movwf	??_floorf
  3639     09E6  1683               	bsf	3,5	;RP0=1, select bank1
  3640     09E7  1303               	bcf	3,6	;RP1=0, select bank1
  3641     09E8  0827               	movf	(floorf@u+1)^(0+128),w
  3642     09E9  1283               	bcf	3,5	;RP0=0, select bank0
  3643     09EA  1303               	bcf	3,6	;RP1=0, select bank0
  3644     09EB  00E7               	movwf	??_floorf+1
  3645     09EC  1683               	bsf	3,5	;RP0=1, select bank1
  3646     09ED  1303               	bcf	3,6	;RP1=0, select bank1
  3647     09EE  0828               	movf	(floorf@u+2)^(0+128),w
  3648     09EF  1283               	bcf	3,5	;RP0=0, select bank0
  3649     09F0  1303               	bcf	3,6	;RP1=0, select bank0
  3650     09F1  00E8               	movwf	??_floorf+2
  3651     09F2  1683               	bsf	3,5	;RP0=1, select bank1
  3652     09F3  1303               	bcf	3,6	;RP1=0, select bank1
  3653     09F4  0829               	movf	(floorf@u+3)^(0+128),w
  3654     09F5  1283               	bcf	3,5	;RP0=0, select bank0
  3655     09F6  1303               	bcf	3,6	;RP1=0, select bank0
  3656     09F7  00E9               	movwf	??_floorf+3
  3657     09F8  3001               	movlw	1
  3658     09F9                     u3995:
  3659     09F9  1003               	clrc
  3660     09FA  0DE6               	rlf	??_floorf,f
  3661     09FB  0DE7               	rlf	??_floorf+1,f
  3662     09FC  0DE8               	rlf	??_floorf+2,f
  3663     09FD  0DE9               	rlf	??_floorf+3,f
  3664     09FE                     u3990:
  3665     09FE  3EFF               	addlw	-1
  3666     09FF  1D03               	skipz
  3667     0A00  29F9               	goto	u3995
  3668     0A01  0869               	movf	??_floorf+3,w
  3669     0A02  0468               	iorwf	??_floorf+2,w
  3670     0A03  0467               	iorwf	??_floorf+1,w
  3671     0A04  0466               	iorwf	??_floorf,w
  3672     0A05  1903               	skipnz
  3673     0A06  2A08               	goto	u4001
  3674     0A07  2A09               	goto	u4000
  3675     0A08                     u4001:
  3676     0A08  2A13               	goto	l757
  3677     0A09                     u4000:
  3678     0A09                     l2646:
  3679     0A09  30BF               	movlw	191
  3680     0A0A  1683               	bsf	3,5	;RP0=1, select bank1
  3681     0A0B  1303               	bcf	3,6	;RP1=0, select bank1
  3682     0A0C  00A9               	movwf	(floorf@u+3)^(0+128)
  3683     0A0D  3080               	movlw	128
  3684     0A0E  00A8               	movwf	(floorf@u+2)^(0+128)
  3685     0A0F  3000               	movlw	0
  3686     0A10  00A7               	movwf	(floorf@u+1)^(0+128)
  3687     0A11  3000               	movlw	0
  3688     0A12  00A6               	movwf	floorf@u^(0+128)
  3689     0A13                     l757:
  3690     0A13  1683               	bsf	3,5	;RP0=1, select bank1
  3691     0A14  1303               	bcf	3,6	;RP1=0, select bank1
  3692     0A15  0829               	movf	(floorf@u+3)^(0+128),w
  3693     0A16  1283               	bcf	3,5	;RP0=0, select bank0
  3694     0A17  1303               	bcf	3,6	;RP1=0, select bank0
  3695     0A18  00E5               	movwf	?_floorf+3
  3696     0A19  1683               	bsf	3,5	;RP0=1, select bank1
  3697     0A1A  1303               	bcf	3,6	;RP1=0, select bank1
  3698     0A1B  0828               	movf	(floorf@u+2)^(0+128),w
  3699     0A1C  1283               	bcf	3,5	;RP0=0, select bank0
  3700     0A1D  1303               	bcf	3,6	;RP1=0, select bank0
  3701     0A1E  00E4               	movwf	?_floorf+2
  3702     0A1F  1683               	bsf	3,5	;RP0=1, select bank1
  3703     0A20  1303               	bcf	3,6	;RP1=0, select bank1
  3704     0A21  0827               	movf	(floorf@u+1)^(0+128),w
  3705     0A22  1283               	bcf	3,5	;RP0=0, select bank0
  3706     0A23  1303               	bcf	3,6	;RP1=0, select bank0
  3707     0A24  00E3               	movwf	?_floorf+1
  3708     0A25  1683               	bsf	3,5	;RP0=1, select bank1
  3709     0A26  1303               	bcf	3,6	;RP1=0, select bank1
  3710     0A27  0826               	movf	floorf@u^(0+128),w
  3711     0A28  1283               	bcf	3,5	;RP0=0, select bank0
  3712     0A29  1303               	bcf	3,6	;RP1=0, select bank0
  3713     0A2A  00E2               	movwf	?_floorf
  3714     0A2B                     l753:
  3715     0A2B  0008               	return
  3716     0A2C                     __end_of_floorf:
  3717                           
  3718                           	psect	text15
  3719     1097                     __ptext15:	
  3720 ;; *************** function ___fpclassifyf *****************
  3721 ;; Defined at:
  3722 ;;		line 4 in file "C:\Program Files\Microchip\xc8\v2.46\pic\sources\c99\common\__fpclassifyf.c"
  3723 ;; Parameters:    Size  Location     Type
  3724 ;;  x               4    0[BANK0 ] float 
  3725 ;; Auto vars:     Size  Location     Type
  3726 ;;  u               4   12[BANK0 ] struct .
  3727 ;;  e               2   10[BANK0 ] int 
  3728 ;; Return value:  Size  Location     Type
  3729 ;;                  2    0[BANK0 ] int 
  3730 ;; Registers used:
  3731 ;;		wreg, status,2, status,0
  3732 ;; Tracked objects:
  3733 ;;		On entry : 0/0
  3734 ;;		On exit  : 0/0
  3735 ;;		Unchanged: 0/0
  3736 ;; Data sizes:     COMMON   BANK0   BANK1   BANK3   BANK2
  3737 ;;      Params:         0       4       0       0       0
  3738 ;;      Locals:         0       6       0       0       0
  3739 ;;      Temps:          0       6       0       0       0
  3740 ;;      Totals:         0      16       0       0       0
  3741 ;;Total ram usage:       16 bytes
  3742 ;; Hardware stack levels used: 1
  3743 ;; Hardware stack levels required when called: 3
  3744 ;; This function calls:
  3745 ;;		Nothing
  3746 ;; This function is called by:
  3747 ;;		_efgtoa
  3748 ;; This function uses a non-reentrant model
  3749 ;;
  3750                           
  3751     1097                     ___fpclassifyf:	
  3752                           ;psect for function ___fpclassifyf
  3753                           
  3754     1097                     l2584:	
  3755                           ;incstack = 0
  3756                           ; Regs used in ___fpclassifyf: [wreg+status,2+status,0]
  3757                           
  3758     1097  1683               	bsf	3,5	;RP0=1, select bank3
  3759     1098  1703               	bsf	3,6	;RP1=1, select bank3
  3760     1099  084E               	movf	(___fpclassifyf@F465+3)^(0+384),w
  3761     109A  1283               	bcf	3,5	;RP0=0, select bank0
  3762     109B  1303               	bcf	3,6	;RP1=0, select bank0
  3763     109C  00AF               	movwf	___fpclassifyf@u+3
  3764     109D  1683               	bsf	3,5	;RP0=1, select bank3
  3765     109E  1703               	bsf	3,6	;RP1=1, select bank3
  3766     109F  084D               	movf	(___fpclassifyf@F465+2)^(0+384),w
  3767     10A0  1283               	bcf	3,5	;RP0=0, select bank0
  3768     10A1  1303               	bcf	3,6	;RP1=0, select bank0
  3769     10A2  00AE               	movwf	___fpclassifyf@u+2
  3770     10A3  1683               	bsf	3,5	;RP0=1, select bank3
  3771     10A4  1703               	bsf	3,6	;RP1=1, select bank3
  3772     10A5  084C               	movf	(___fpclassifyf@F465+1)^(0+384),w
  3773     10A6  1283               	bcf	3,5	;RP0=0, select bank0
  3774     10A7  1303               	bcf	3,6	;RP1=0, select bank0
  3775     10A8  00AD               	movwf	___fpclassifyf@u+1
  3776     10A9  1683               	bsf	3,5	;RP0=1, select bank3
  3777     10AA  1703               	bsf	3,6	;RP1=1, select bank3
  3778     10AB  084B               	movf	___fpclassifyf@F465^(0+384),w
  3779     10AC  1283               	bcf	3,5	;RP0=0, select bank0
  3780     10AD  1303               	bcf	3,6	;RP1=0, select bank0
  3781     10AE  00AC               	movwf	___fpclassifyf@u
  3782     10AF  0823               	movf	___fpclassifyf@x+3,w
  3783     10B0  00AF               	movwf	___fpclassifyf@u+3
  3784     10B1  0822               	movf	___fpclassifyf@x+2,w
  3785     10B2  00AE               	movwf	___fpclassifyf@u+2
  3786     10B3  0821               	movf	___fpclassifyf@x+1,w
  3787     10B4  00AD               	movwf	___fpclassifyf@u+1
  3788     10B5  0820               	movf	___fpclassifyf@x,w
  3789     10B6  00AC               	movwf	___fpclassifyf@u
  3790     10B7                     l2586:
  3791     10B7  082C               	movf	___fpclassifyf@u,w
  3792     10B8  00A4               	movwf	??___fpclassifyf
  3793     10B9  082D               	movf	___fpclassifyf@u+1,w
  3794     10BA  00A5               	movwf	??___fpclassifyf+1
  3795     10BB  082E               	movf	___fpclassifyf@u+2,w
  3796     10BC  00A6               	movwf	??___fpclassifyf+2
  3797     10BD  082F               	movf	___fpclassifyf@u+3,w
  3798     10BE  00A7               	movwf	??___fpclassifyf+3
  3799     10BF  3017               	movlw	23
  3800     10C0                     u3795:
  3801     10C0  1003               	clrc
  3802     10C1  0CA7               	rrf	??___fpclassifyf+3,f
  3803     10C2  0CA6               	rrf	??___fpclassifyf+2,f
  3804     10C3  0CA5               	rrf	??___fpclassifyf+1,f
  3805     10C4  0CA4               	rrf	??___fpclassifyf,f
  3806     10C5                     u3790:
  3807     10C5  3EFF               	addlw	-1
  3808     10C6  1D03               	skipz
  3809     10C7  28C0               	goto	u3795
  3810     10C8  30FF               	movlw	255
  3811     10C9  0524               	andwf	??___fpclassifyf,w
  3812     10CA  00AA               	movwf	___fpclassifyf@e
  3813     10CB  3000               	movlw	0
  3814     10CC  0525               	andwf	??___fpclassifyf+1,w
  3815     10CD  00AB               	movwf	___fpclassifyf@e+1
  3816     10CE                     l2588:
  3817     10CE  082A               	movf	___fpclassifyf@e,w
  3818     10CF  042B               	iorwf	___fpclassifyf@e+1,w
  3819     10D0  1D03               	btfss	3,2
  3820     10D1  28D3               	goto	u3801
  3821     10D2  28D4               	goto	u3800
  3822     10D3                     u3801:
  3823     10D3  28F7               	goto	l2598
  3824     10D4                     u3800:
  3825     10D4                     l2590:
  3826     10D4  082C               	movf	___fpclassifyf@u,w
  3827     10D5  00A4               	movwf	??___fpclassifyf
  3828     10D6  082D               	movf	___fpclassifyf@u+1,w
  3829     10D7  00A5               	movwf	??___fpclassifyf+1
  3830     10D8  082E               	movf	___fpclassifyf@u+2,w
  3831     10D9  00A6               	movwf	??___fpclassifyf+2
  3832     10DA  082F               	movf	___fpclassifyf@u+3,w
  3833     10DB  00A7               	movwf	??___fpclassifyf+3
  3834     10DC  3001               	movlw	1
  3835     10DD                     u3815:
  3836     10DD  1003               	clrc
  3837     10DE  0DA4               	rlf	??___fpclassifyf,f
  3838     10DF  0DA5               	rlf	??___fpclassifyf+1,f
  3839     10E0  0DA6               	rlf	??___fpclassifyf+2,f
  3840     10E1  0DA7               	rlf	??___fpclassifyf+3,f
  3841     10E2                     u3810:
  3842     10E2  3EFF               	addlw	-1
  3843     10E3  1D03               	skipz
  3844     10E4  28DD               	goto	u3815
  3845     10E5  0827               	movf	??___fpclassifyf+3,w
  3846     10E6  0426               	iorwf	??___fpclassifyf+2,w
  3847     10E7  0425               	iorwf	??___fpclassifyf+1,w
  3848     10E8  0424               	iorwf	??___fpclassifyf,w
  3849     10E9  1D03               	skipz
  3850     10EA  28EC               	goto	u3821
  3851     10EB  28ED               	goto	u3820
  3852     10EC                     u3821:
  3853     10EC  28F2               	goto	l2594
  3854     10ED                     u3820:
  3855     10ED                     l2592:
  3856     10ED  3002               	movlw	2
  3857     10EE  00A0               	movwf	?___fpclassifyf
  3858     10EF  3000               	movlw	0
  3859     10F0  00A1               	movwf	?___fpclassifyf+1
  3860     10F1  2923               	goto	l746
  3861     10F2                     l2594:
  3862     10F2  3003               	movlw	3
  3863     10F3  00A0               	movwf	?___fpclassifyf
  3864     10F4  3000               	movlw	0
  3865     10F5  00A1               	movwf	?___fpclassifyf+1
  3866     10F6  2923               	goto	l746
  3867     10F7                     l2598:
  3868     10F7  0A2A               	incf	___fpclassifyf@e,w
  3869     10F8  042B               	iorwf	___fpclassifyf@e+1,w
  3870     10F9  1D03               	btfss	3,2
  3871     10FA  28FC               	goto	u3831
  3872     10FB  28FD               	goto	u3830
  3873     10FC                     u3831:
  3874     10FC  291F               	goto	l2604
  3875     10FD                     u3830:
  3876     10FD                     l2600:
  3877     10FD  082C               	movf	___fpclassifyf@u,w
  3878     10FE  00A4               	movwf	??___fpclassifyf
  3879     10FF  082D               	movf	___fpclassifyf@u+1,w
  3880     1100  00A5               	movwf	??___fpclassifyf+1
  3881     1101  082E               	movf	___fpclassifyf@u+2,w
  3882     1102  00A6               	movwf	??___fpclassifyf+2
  3883     1103  082F               	movf	___fpclassifyf@u+3,w
  3884     1104  00A7               	movwf	??___fpclassifyf+3
  3885     1105  3009               	movlw	9
  3886     1106                     u3845:
  3887     1106  1003               	clrc
  3888     1107  0DA4               	rlf	??___fpclassifyf,f
  3889     1108  0DA5               	rlf	??___fpclassifyf+1,f
  3890     1109  0DA6               	rlf	??___fpclassifyf+2,f
  3891     110A  0DA7               	rlf	??___fpclassifyf+3,f
  3892     110B                     u3840:
  3893     110B  3EFF               	addlw	-1
  3894     110C  1D03               	skipz
  3895     110D  2906               	goto	u3845
  3896     110E  0827               	movf	??___fpclassifyf+3,w
  3897     110F  0426               	iorwf	??___fpclassifyf+2,w
  3898     1110  0425               	iorwf	??___fpclassifyf+1,w
  3899     1111  0424               	iorwf	??___fpclassifyf,w
  3900     1112  1903               	skipnz
  3901     1113  2915               	goto	u3851
  3902     1114  2917               	goto	u3850
  3903     1115                     u3851:
  3904     1115  3001               	movlw	1
  3905     1116  2918               	goto	u3860
  3906     1117                     u3850:
  3907     1117  3000               	movlw	0
  3908     1118                     u3860:
  3909     1118  00A8               	movwf	??___fpclassifyf+4
  3910     1119  01A9               	clrf	??___fpclassifyf+5
  3911     111A  0828               	movf	??___fpclassifyf+4,w
  3912     111B  00A0               	movwf	?___fpclassifyf
  3913     111C  0829               	movf	??___fpclassifyf+5,w
  3914     111D  00A1               	movwf	?___fpclassifyf+1
  3915     111E  2923               	goto	l746
  3916     111F                     l2604:
  3917     111F  3004               	movlw	4
  3918     1120  00A0               	movwf	?___fpclassifyf
  3919     1121  3000               	movlw	0
  3920     1122  00A1               	movwf	?___fpclassifyf+1
  3921     1123                     l746:
  3922     1123  0008               	return
  3923     1124                     __end_of___fpclassifyf:
  3924                           
  3925                           	psect	text16
  3926     0801                     __ptext16:	
  3927 ;; *************** function ___fltol *****************
  3928 ;; Defined at:
  3929 ;;		line 43 in file "C:\Program Files\Microchip\xc8\v2.46\pic\sources\c99\common\fltol.c"
  3930 ;; Parameters:    Size  Location     Type
  3931 ;;  f1              4    0[BANK0 ] int 
  3932 ;; Auto vars:     Size  Location     Type
  3933 ;;  exp1            1    9[BANK0 ] unsigned char 
  3934 ;;  sign1           1    8[BANK0 ] unsigned char 
  3935 ;; Return value:  Size  Location     Type
  3936 ;;                  4    0[BANK0 ] long 
  3937 ;; Registers used:
  3938 ;;		wreg, status,2, status,0, btemp+1
  3939 ;; Tracked objects:
  3940 ;;		On entry : 0/0
  3941 ;;		On exit  : 0/0
  3942 ;;		Unchanged: 0/0
  3943 ;; Data sizes:     COMMON   BANK0   BANK1   BANK3   BANK2
  3944 ;;      Params:         0       4       0       0       0
  3945 ;;      Locals:         0       2       0       0       0
  3946 ;;      Temps:          0       4       0       0       0
  3947 ;;      Totals:         0      10       0       0       0
  3948 ;;Total ram usage:       10 bytes
  3949 ;; Hardware stack levels used: 1
  3950 ;; Hardware stack levels required when called: 3
  3951 ;; This function calls:
  3952 ;;		Nothing
  3953 ;; This function is called by:
  3954 ;;		_efgtoa
  3955 ;; This function uses a non-reentrant model
  3956 ;;
  3957                           
  3958     0801                     ___fltol:	
  3959                           ;psect for function ___fltol
  3960                           
  3961     0801                     l2240:	
  3962                           ;incstack = 0
  3963                           ; Regs used in ___fltol: [wreg+status,2+status,0+btemp+1]
  3964                           
  3965     0801  1003               	clrc
  3966     0802  1283               	bcf	3,5	;RP0=0, select bank0
  3967     0803  1303               	bcf	3,6	;RP1=0, select bank0
  3968     0804  0D22               	rlf	___fltol@f1+2,w
  3969     0805  0D23               	rlf	___fltol@f1+3,w
  3970     0806  00A9               	movwf	___fltol@exp1
  3971     0807  0829               	movf	___fltol@exp1,w
  3972     0808  1D03               	btfss	3,2
  3973     0809  280B               	goto	u3011
  3974     080A  280C               	goto	u3010
  3975     080B                     u3011:
  3976     080B  2815               	goto	l2246
  3977     080C                     u3010:
  3978     080C                     l2242:
  3979     080C  3000               	movlw	0
  3980     080D  00A3               	movwf	?___fltol+3
  3981     080E  3000               	movlw	0
  3982     080F  00A2               	movwf	?___fltol+2
  3983     0810  3000               	movlw	0
  3984     0811  00A1               	movwf	?___fltol+1
  3985     0812  3000               	movlw	0
  3986     0813  00A0               	movwf	?___fltol
  3987     0814  2878               	goto	l349
  3988     0815                     l2246:
  3989     0815  0820               	movf	___fltol@f1,w
  3990     0816  00A4               	movwf	??___fltol
  3991     0817  0821               	movf	___fltol@f1+1,w
  3992     0818  00A5               	movwf	??___fltol+1
  3993     0819  0822               	movf	___fltol@f1+2,w
  3994     081A  00A6               	movwf	??___fltol+2
  3995     081B  0823               	movf	___fltol@f1+3,w
  3996     081C  00A7               	movwf	??___fltol+3
  3997     081D  301F               	movlw	31
  3998     081E                     u3025:
  3999     081E  1003               	clrc
  4000     081F  0CA7               	rrf	??___fltol+3,f
  4001     0820  0CA6               	rrf	??___fltol+2,f
  4002     0821  0CA5               	rrf	??___fltol+1,f
  4003     0822  0CA4               	rrf	??___fltol,f
  4004     0823                     u3020:
  4005     0823  3EFF               	addlw	-1
  4006     0824  1D03               	skipz
  4007     0825  281E               	goto	u3025
  4008     0826  0824               	movf	??___fltol,w
  4009     0827  00A8               	movwf	___fltol@sign1
  4010     0828                     l2248:
  4011     0828  17A2               	bsf	___fltol@f1+2,7
  4012     0829                     l2250:
  4013     0829  30FF               	movlw	255
  4014     082A  05A0               	andwf	___fltol@f1,f
  4015     082B  30FF               	movlw	255
  4016     082C  05A1               	andwf	___fltol@f1+1,f
  4017     082D  30FF               	movlw	255
  4018     082E  05A2               	andwf	___fltol@f1+2,f
  4019     082F  3000               	movlw	0
  4020     0830  05A3               	andwf	___fltol@f1+3,f
  4021     0831                     l2252:
  4022     0831  3096               	movlw	150
  4023     0832  02A9               	subwf	___fltol@exp1,f
  4024     0833                     l2254:
  4025     0833  1FA9               	btfss	___fltol@exp1,7
  4026     0834  2836               	goto	u3031
  4027     0835  2837               	goto	u3030
  4028     0836                     u3031:
  4029     0836  2851               	goto	l2266
  4030     0837                     u3030:
  4031     0837                     l2256:
  4032     0837  0829               	movf	___fltol@exp1,w
  4033     0838  3A80               	xorlw	128
  4034     0839  3E97               	addlw	151
  4035     083A  1803               	skipnc
  4036     083B  283D               	goto	u3041
  4037     083C  283E               	goto	u3040
  4038     083D                     u3041:
  4039     083D  283F               	goto	l2262
  4040     083E                     u3040:
  4041     083E  280C               	goto	l2242
  4042     083F                     l2262:
  4043     083F  3001               	movlw	1
  4044     0840                     u3055:
  4045     0840  1003               	clrc
  4046     0841  0CA3               	rrf	___fltol@f1+3,f
  4047     0842  0CA2               	rrf	___fltol@f1+2,f
  4048     0843  0CA1               	rrf	___fltol@f1+1,f
  4049     0844  0CA0               	rrf	___fltol@f1,f
  4050     0845  3EFF               	addlw	-1
  4051     0846  1D03               	skipz
  4052     0847  2840               	goto	u3055
  4053     0848                     l2264:
  4054     0848  3001               	movlw	1
  4055     0849  00FF               	movwf	btemp+1
  4056     084A  087F               	movf	btemp+1,w
  4057     084B  07A9               	addwf	___fltol@exp1,f
  4058     084C  1D03               	btfss	3,2
  4059     084D  284F               	goto	u3061
  4060     084E  2850               	goto	u3060
  4061     084F                     u3061:
  4062     084F  283F               	goto	l2262
  4063     0850                     u3060:
  4064     0850  2868               	goto	l2274
  4065     0851                     l2266:
  4066     0851  3020               	movlw	32
  4067     0852  0229               	subwf	___fltol@exp1,w
  4068     0853  1C03               	skipc
  4069     0854  2856               	goto	u3071
  4070     0855  2857               	goto	u3070
  4071     0856                     u3071:
  4072     0856  2863               	goto	l356
  4073     0857                     u3070:
  4074     0857  280C               	goto	l2242
  4075     0858                     l2272:
  4076     0858  3001               	movlw	1
  4077     0859  00A4               	movwf	??___fltol
  4078     085A                     u3085:
  4079     085A  1003               	clrc
  4080     085B  0DA0               	rlf	___fltol@f1,f
  4081     085C  0DA1               	rlf	___fltol@f1+1,f
  4082     085D  0DA2               	rlf	___fltol@f1+2,f
  4083     085E  0DA3               	rlf	___fltol@f1+3,f
  4084     085F  0BA4               	decfsz	??___fltol,f
  4085     0860  285A               	goto	u3085
  4086     0861  3001               	movlw	1
  4087     0862  02A9               	subwf	___fltol@exp1,f
  4088     0863                     l356:
  4089     0863  0829               	movf	___fltol@exp1,w
  4090     0864  1D03               	btfss	3,2
  4091     0865  2867               	goto	u3091
  4092     0866  2868               	goto	u3090
  4093     0867                     u3091:
  4094     0867  2858               	goto	l2272
  4095     0868                     u3090:
  4096     0868                     l2274:
  4097     0868  0828               	movf	___fltol@sign1,w
  4098     0869  1903               	btfsc	3,2
  4099     086A  286C               	goto	u3101
  4100     086B  286D               	goto	u3100
  4101     086C                     u3101:
  4102     086C  2878               	goto	l359
  4103     086D                     u3100:
  4104     086D                     l2276:
  4105     086D  09A0               	comf	___fltol@f1,f
  4106     086E  09A1               	comf	___fltol@f1+1,f
  4107     086F  09A2               	comf	___fltol@f1+2,f
  4108     0870  09A3               	comf	___fltol@f1+3,f
  4109     0871  0AA0               	incf	___fltol@f1,f
  4110     0872  1903               	skipnz
  4111     0873  0AA1               	incf	___fltol@f1+1,f
  4112     0874  1903               	skipnz
  4113     0875  0AA2               	incf	___fltol@f1+2,f
  4114     0876  1903               	skipnz
  4115     0877  0AA3               	incf	___fltol@f1+3,f
  4116     0878                     l359:
  4117     0878                     l349:
  4118     0878  0008               	return
  4119     0879                     __end_of___fltol:
  4120                           
  4121                           	psect	text17
  4122     1E52                     __ptext17:	
  4123 ;; *************** function ___flsub *****************
  4124 ;; Defined at:
  4125 ;;		line 242 in file "C:\Program Files\Microchip\xc8\v2.46\pic\sources\c99\common\sprcadd.c"
  4126 ;; Parameters:    Size  Location     Type
  4127 ;;  a               4   40[BANK0 ] long 
  4128 ;;  b               4   44[BANK0 ] long 
  4129 ;; Auto vars:     Size  Location     Type
  4130 ;;		None
  4131 ;; Return value:  Size  Location     Type
  4132 ;;                  4   40[BANK0 ] long 
  4133 ;; Registers used:
  4134 ;;		wreg, status,2, status,0, btemp+1, pclath, cstack
  4135 ;; Tracked objects:
  4136 ;;		On entry : 0/0
  4137 ;;		On exit  : 0/0
  4138 ;;		Unchanged: 0/0
  4139 ;; Data sizes:     COMMON   BANK0   BANK1   BANK3   BANK2
  4140 ;;      Params:         0       8       0       0       0
  4141 ;;      Locals:         0       0       0       0       0
  4142 ;;      Temps:          0       0       0       0       0
  4143 ;;      Totals:         0       8       0       0       0
  4144 ;;Total ram usage:        8 bytes
  4145 ;; Hardware stack levels used: 1
  4146 ;; Hardware stack levels required when called: 4
  4147 ;; This function calls:
  4148 ;;		___fladd
  4149 ;; This function is called by:
  4150 ;;		_efgtoa
  4151 ;; This function uses a non-reentrant model
  4152 ;;
  4153                           
  4154     1E52                     ___flsub:	
  4155                           ;psect for function ___flsub
  4156                           
  4157     1E52                     l2278:	
  4158                           ;incstack = 0
  4159 ;; hardware stack exceeded
  4160                           ; Regs used in ___flsub: [wreg+status,2+status,0+btemp+1+pclath+cstack]
  4161                           
  4162     1E52  3080               	movlw	128
  4163     1E53  1283               	bcf	3,5	;RP0=0, select bank0
  4164     1E54  1303               	bcf	3,6	;RP1=0, select bank0
  4165     1E55  06CB               	xorwf	___flsub@a+3,f
  4166     1E56                     l2280:
  4167     1E56  084F               	movf	___flsub@b+3,w
  4168     1E57  00A3               	movwf	___fladd@b+3
  4169     1E58  084E               	movf	___flsub@b+2,w
  4170     1E59  00A2               	movwf	___fladd@b+2
  4171     1E5A  084D               	movf	___flsub@b+1,w
  4172     1E5B  00A1               	movwf	___fladd@b+1
  4173     1E5C  084C               	movf	___flsub@b,w
  4174     1E5D  00A0               	movwf	___fladd@b
  4175     1E5E  084B               	movf	___flsub@a+3,w
  4176     1E5F  00A7               	movwf	___fladd@a+3
  4177     1E60  084A               	movf	___flsub@a+2,w
  4178     1E61  00A6               	movwf	___fladd@a+2
  4179     1E62  0849               	movf	___flsub@a+1,w
  4180     1E63  00A5               	movwf	___fladd@a+1
  4181     1E64  0848               	movf	___flsub@a,w
  4182     1E65  00A4               	movwf	___fladd@a
  4183     1E66  160A  118A  25A8  160A  158A  	fcall	___fladd
  4184     1E6B  1283               	bcf	3,5	;RP0=0, select bank0
  4185     1E6C  1303               	bcf	3,6	;RP1=0, select bank0
  4186     1E6D  0823               	movf	?___fladd+3,w
  4187     1E6E  00CB               	movwf	?___flsub+3
  4188     1E6F  0822               	movf	?___fladd+2,w
  4189     1E70  00CA               	movwf	?___flsub+2
  4190     1E71  0821               	movf	?___fladd+1,w
  4191     1E72  00C9               	movwf	?___flsub+1
  4192     1E73  0820               	movf	?___fladd,w
  4193     1E74  00C8               	movwf	?___flsub
  4194     1E75                     l502:
  4195     1E75  0008               	return
  4196     1E76                     __end_of___flsub:
  4197                           
  4198                           	psect	text18
  4199     15A8                     __ptext18:	
  4200 ;; *************** function ___fladd *****************
  4201 ;; Defined at:
  4202 ;;		line 10 in file "C:\Program Files\Microchip\xc8\v2.46\pic\sources\c99\common\sprcadd.c"
  4203 ;; Parameters:    Size  Location     Type
  4204 ;;  b               4    0[BANK0 ] long 
  4205 ;;  a               4    4[BANK0 ] long 
  4206 ;; Auto vars:     Size  Location     Type
  4207 ;;  grs             1   19[BANK0 ] unsigned char 
  4208 ;;  bexp            1   18[BANK0 ] unsigned char 
  4209 ;;  aexp            1   17[BANK0 ] unsigned char 
  4210 ;;  signs           1   16[BANK0 ] unsigned char 
  4211 ;; Return value:  Size  Location     Type
  4212 ;;                  4    0[BANK0 ] unsigned char 
  4213 ;; Registers used:
  4214 ;;		wreg, status,2, status,0, btemp+1
  4215 ;; Tracked objects:
  4216 ;;		On entry : 0/0
  4217 ;;		On exit  : 0/0
  4218 ;;		Unchanged: 0/0
  4219 ;; Data sizes:     COMMON   BANK0   BANK1   BANK3   BANK2
  4220 ;;      Params:         0       8       0       0       0
  4221 ;;      Locals:         0       4       0       0       0
  4222 ;;      Temps:          0       8       0       0       0
  4223 ;;      Totals:         0      20       0       0       0
  4224 ;;Total ram usage:       20 bytes
  4225 ;; Hardware stack levels used: 1
  4226 ;; Hardware stack levels required when called: 3
  4227 ;; This function calls:
  4228 ;;		Nothing
  4229 ;; This function is called by:
  4230 ;;		___flsub
  4231 ;;		_efgtoa
  4232 ;; This function uses a non-reentrant model
  4233 ;;
  4234                           
  4235     15A8                     ___fladd:	
  4236                           ;psect for function ___fladd
  4237                           
  4238     15A8                     l1964:	
  4239                           ;incstack = 0
  4240 ;; hardware stack exceeded
  4241                           ; Regs used in ___fladd: [wreg+status,2+status,0+btemp+1]
  4242                           
  4243     15A8  1283               	bcf	3,5	;RP0=0, select bank0
  4244     15A9  1303               	bcf	3,6	;RP1=0, select bank0
  4245     15AA  0823               	movf	___fladd@b+3,w
  4246     15AB  3980               	andlw	128
  4247     15AC  00B0               	movwf	___fladd@signs
  4248     15AD                     l1966:
  4249     15AD  0823               	movf	___fladd@b+3,w
  4250     15AE  00A8               	movwf	??___fladd
  4251     15AF  0728               	addwf	??___fladd,w
  4252     15B0  00B2               	movwf	___fladd@bexp
  4253     15B1                     l1968:
  4254     15B1  1FA2               	btfss	___fladd@b+2,7
  4255     15B2  2DB4               	goto	u2361
  4256     15B3  2DB5               	goto	u2360
  4257     15B4                     u2361:
  4258     15B4  2DB6               	goto	l1972
  4259     15B5                     u2360:
  4260     15B5                     l1970:
  4261     15B5  1432               	bsf	___fladd@bexp,0
  4262     15B6                     l1972:
  4263     15B6  0832               	movf	___fladd@bexp,w
  4264     15B7  1903               	btfsc	3,2
  4265     15B8  2DBA               	goto	u2371
  4266     15B9  2DBB               	goto	u2370
  4267     15BA                     u2371:
  4268     15BA  2DCB               	goto	l1982
  4269     15BB                     u2370:
  4270     15BB                     l1974:
  4271     15BB  0A32               	incf	___fladd@bexp,w
  4272     15BC  1D03               	btfss	3,2
  4273     15BD  2DBF               	goto	u2381
  4274     15BE  2DC0               	goto	u2380
  4275     15BF                     u2381:
  4276     15BF  2DC8               	goto	l1978
  4277     15C0                     u2380:
  4278     15C0                     l1976:
  4279     15C0  3000               	movlw	0
  4280     15C1  00A3               	movwf	___fladd@b+3
  4281     15C2  3000               	movlw	0
  4282     15C3  00A2               	movwf	___fladd@b+2
  4283     15C4  3000               	movlw	0
  4284     15C5  00A1               	movwf	___fladd@b+1
  4285     15C6  3000               	movlw	0
  4286     15C7  00A0               	movwf	___fladd@b
  4287     15C8                     l1978:
  4288     15C8  17A2               	bsf	___fladd@b+2,7
  4289     15C9                     l1980:
  4290     15C9  01A3               	clrf	___fladd@b+3
  4291     15CA  2DD3               	goto	l1984
  4292     15CB                     l1982:
  4293     15CB  3000               	movlw	0
  4294     15CC  00A3               	movwf	___fladd@b+3
  4295     15CD  3000               	movlw	0
  4296     15CE  00A2               	movwf	___fladd@b+2
  4297     15CF  3000               	movlw	0
  4298     15D0  00A1               	movwf	___fladd@b+1
  4299     15D1  3000               	movlw	0
  4300     15D2  00A0               	movwf	___fladd@b
  4301     15D3                     l1984:
  4302     15D3  0827               	movf	___fladd@a+3,w
  4303     15D4  3980               	andlw	128
  4304     15D5  00B1               	movwf	___fladd@aexp
  4305     15D6                     l1986:
  4306     15D6  0831               	movf	___fladd@aexp,w
  4307     15D7  0630               	xorwf	___fladd@signs,w
  4308     15D8  1903               	skipnz
  4309     15D9  2DDB               	goto	u2391
  4310     15DA  2DDC               	goto	u2390
  4311     15DB                     u2391:
  4312     15DB  2DDD               	goto	l1990
  4313     15DC                     u2390:
  4314     15DC                     l1988:
  4315     15DC  1730               	bsf	___fladd@signs,6
  4316     15DD                     l1990:
  4317     15DD  0827               	movf	___fladd@a+3,w
  4318     15DE  00A8               	movwf	??___fladd
  4319     15DF  0728               	addwf	??___fladd,w
  4320     15E0  00B1               	movwf	___fladd@aexp
  4321     15E1                     l1992:
  4322     15E1  1FA6               	btfss	___fladd@a+2,7
  4323     15E2  2DE4               	goto	u2401
  4324     15E3  2DE5               	goto	u2400
  4325     15E4                     u2401:
  4326     15E4  2DE6               	goto	l1996
  4327     15E5                     u2400:
  4328     15E5                     l1994:
  4329     15E5  1431               	bsf	___fladd@aexp,0
  4330     15E6                     l1996:
  4331     15E6  0831               	movf	___fladd@aexp,w
  4332     15E7  1903               	btfsc	3,2
  4333     15E8  2DEA               	goto	u2411
  4334     15E9  2DEB               	goto	u2410
  4335     15EA                     u2411:
  4336     15EA  2DFB               	goto	l2006
  4337     15EB                     u2410:
  4338     15EB                     l1998:
  4339     15EB  0A31               	incf	___fladd@aexp,w
  4340     15EC  1D03               	btfss	3,2
  4341     15ED  2DEF               	goto	u2421
  4342     15EE  2DF0               	goto	u2420
  4343     15EF                     u2421:
  4344     15EF  2DF8               	goto	l2002
  4345     15F0                     u2420:
  4346     15F0                     l2000:
  4347     15F0  3000               	movlw	0
  4348     15F1  00A7               	movwf	___fladd@a+3
  4349     15F2  3000               	movlw	0
  4350     15F3  00A6               	movwf	___fladd@a+2
  4351     15F4  3000               	movlw	0
  4352     15F5  00A5               	movwf	___fladd@a+1
  4353     15F6  3000               	movlw	0
  4354     15F7  00A4               	movwf	___fladd@a
  4355     15F8                     l2002:
  4356     15F8  17A6               	bsf	___fladd@a+2,7
  4357     15F9                     l2004:
  4358     15F9  01A7               	clrf	___fladd@a+3
  4359     15FA  2E03               	goto	l456
  4360     15FB                     l2006:
  4361     15FB  3000               	movlw	0
  4362     15FC  00A7               	movwf	___fladd@a+3
  4363     15FD  3000               	movlw	0
  4364     15FE  00A6               	movwf	___fladd@a+2
  4365     15FF  3000               	movlw	0
  4366     1600  00A5               	movwf	___fladd@a+1
  4367     1601  3000               	movlw	0
  4368     1602  00A4               	movwf	___fladd@a
  4369     1603                     l456:
  4370     1603  0832               	movf	___fladd@bexp,w
  4371     1604  0231               	subwf	___fladd@aexp,w
  4372     1605  1803               	skipnc
  4373     1606  2E08               	goto	u2431
  4374     1607  2E09               	goto	u2430
  4375     1608                     u2431:
  4376     1608  2E2F               	goto	l2042
  4377     1609                     u2430:
  4378     1609                     l2008:
  4379     1609  1F30               	btfss	___fladd@signs,6
  4380     160A  2E0C               	goto	u2441
  4381     160B  2E0D               	goto	u2440
  4382     160C                     u2441:
  4383     160C  2E11               	goto	l2012
  4384     160D                     u2440:
  4385     160D                     l2010:
  4386     160D  3080               	movlw	128
  4387     160E  00FF               	movwf	btemp+1
  4388     160F  087F               	movf	btemp+1,w
  4389     1610  06B0               	xorwf	___fladd@signs,f
  4390     1611                     l2012:
  4391     1611  0832               	movf	___fladd@bexp,w
  4392     1612  00B3               	movwf	___fladd@grs
  4393     1613                     l2014:
  4394     1613  0831               	movf	___fladd@aexp,w
  4395     1614  00B2               	movwf	___fladd@bexp
  4396     1615                     l2016:
  4397     1615  0833               	movf	___fladd@grs,w
  4398     1616  00B1               	movwf	___fladd@aexp
  4399     1617                     l2018:
  4400     1617  0820               	movf	___fladd@b,w
  4401     1618  00B3               	movwf	___fladd@grs
  4402     1619                     l2020:
  4403     1619  0824               	movf	___fladd@a,w
  4404     161A  00A0               	movwf	___fladd@b
  4405     161B                     l2022:
  4406     161B  0833               	movf	___fladd@grs,w
  4407     161C  00A4               	movwf	___fladd@a
  4408     161D                     l2024:
  4409     161D  0821               	movf	___fladd@b+1,w
  4410     161E  00B3               	movwf	___fladd@grs
  4411     161F                     l2026:
  4412     161F  0825               	movf	___fladd@a+1,w
  4413     1620  00A1               	movwf	___fladd@b+1
  4414     1621                     l2028:
  4415     1621  0833               	movf	___fladd@grs,w
  4416     1622  00A5               	movwf	___fladd@a+1
  4417     1623                     l2030:
  4418     1623  0822               	movf	___fladd@b+2,w
  4419     1624  00B3               	movwf	___fladd@grs
  4420     1625                     l2032:
  4421     1625  0826               	movf	___fladd@a+2,w
  4422     1626  00A2               	movwf	___fladd@b+2
  4423     1627                     l2034:
  4424     1627  0833               	movf	___fladd@grs,w
  4425     1628  00A6               	movwf	___fladd@a+2
  4426     1629                     l2036:
  4427     1629  0823               	movf	___fladd@b+3,w
  4428     162A  00B3               	movwf	___fladd@grs
  4429     162B                     l2038:
  4430     162B  0827               	movf	___fladd@a+3,w
  4431     162C  00A3               	movwf	___fladd@b+3
  4432     162D                     l2040:
  4433     162D  0833               	movf	___fladd@grs,w
  4434     162E  00A7               	movwf	___fladd@a+3
  4435     162F                     l2042:
  4436     162F  01B3               	clrf	___fladd@grs
  4437     1630                     l2044:
  4438     1630  0831               	movf	___fladd@aexp,w
  4439     1631  00A8               	movwf	??___fladd
  4440     1632  01A9               	clrf	??___fladd+1
  4441     1633  0829               	movf	??___fladd+1,w
  4442     1634  00AB               	movwf	??___fladd+3
  4443     1635  0832               	movf	___fladd@bexp,w
  4444     1636  0228               	subwf	??___fladd,w
  4445     1637  00AA               	movwf	??___fladd+2
  4446     1638  1C03               	skipc
  4447     1639  03AB               	decf	??___fladd+3,f
  4448     163A  082B               	movf	??___fladd+3,w
  4449     163B  3A80               	xorlw	128
  4450     163C  00FF               	movwf	btemp+1
  4451     163D  3080               	movlw	128
  4452     163E  027F               	subwf	btemp+1,w
  4453     163F  1D03               	skipz
  4454     1640  2E43               	goto	u2455
  4455     1641  301A               	movlw	26
  4456     1642  022A               	subwf	??___fladd+2,w
  4457     1643                     u2455:
  4458     1643  1C03               	skipc
  4459     1644  2E46               	goto	u2451
  4460     1645  2E47               	goto	u2450
  4461     1646                     u2451:
  4462     1646  2E7E               	goto	l2060
  4463     1647                     u2450:
  4464     1647                     l2046:
  4465     1647  1283               	bcf	3,5	;RP0=0, select bank0
  4466     1648  1303               	bcf	3,6	;RP1=0, select bank0
  4467     1649  0823               	movf	___fladd@b+3,w
  4468     164A  0422               	iorwf	___fladd@b+2,w
  4469     164B  0421               	iorwf	___fladd@b+1,w
  4470     164C  0420               	iorwf	___fladd@b,w
  4471     164D  1D03               	skipz
  4472     164E  2E50               	goto	u2461
  4473     164F  2E52               	goto	u2460
  4474     1650                     u2461:
  4475     1650  3001               	movlw	1
  4476     1651  2E53               	goto	u2470
  4477     1652                     u2460:
  4478     1652  3000               	movlw	0
  4479     1653                     u2470:
  4480     1653  00B3               	movwf	___fladd@grs
  4481     1654  3000               	movlw	0
  4482     1655  00A3               	movwf	___fladd@b+3
  4483     1656  3000               	movlw	0
  4484     1657  00A2               	movwf	___fladd@b+2
  4485     1658  3000               	movlw	0
  4486     1659  00A1               	movwf	___fladd@b+1
  4487     165A  3000               	movlw	0
  4488     165B  00A0               	movwf	___fladd@b
  4489     165C  0831               	movf	___fladd@aexp,w
  4490     165D  00B2               	movwf	___fladd@bexp
  4491     165E  2E86               	goto	l460
  4492     165F                     l462:
  4493     165F  1C33               	btfss	___fladd@grs,0
  4494     1660  2E62               	goto	u2481
  4495     1661  2E63               	goto	u2480
  4496     1662                     u2481:
  4497     1662  2E6A               	goto	l2050
  4498     1663                     u2480:
  4499     1663                     l2048:
  4500     1663  0833               	movf	___fladd@grs,w
  4501     1664  00A8               	movwf	??___fladd
  4502     1665  1003               	clrc
  4503     1666  0C28               	rrf	??___fladd,w
  4504     1667  3801               	iorlw	1
  4505     1668  00B3               	movwf	___fladd@grs
  4506     1669  2E6C               	goto	l2052
  4507     166A                     l2050:
  4508     166A  1003               	clrc
  4509     166B  0CB3               	rrf	___fladd@grs,f
  4510     166C                     l2052:
  4511     166C  1C20               	btfss	___fladd@b,0
  4512     166D  2E6F               	goto	u2491
  4513     166E  2E70               	goto	u2490
  4514     166F                     u2491:
  4515     166F  2E71               	goto	l2056
  4516     1670                     u2490:
  4517     1670                     l2054:
  4518     1670  17B3               	bsf	___fladd@grs,7
  4519     1671                     l2056:
  4520     1671  3001               	movlw	1
  4521     1672  00A8               	movwf	??___fladd
  4522     1673                     u2505:
  4523     1673  0D23               	rlf	___fladd@b+3,w
  4524     1674  0CA3               	rrf	___fladd@b+3,f
  4525     1675  0CA2               	rrf	___fladd@b+2,f
  4526     1676  0CA1               	rrf	___fladd@b+1,f
  4527     1677  0CA0               	rrf	___fladd@b,f
  4528     1678  0BA8               	decfsz	??___fladd& (0+127),f
  4529     1679  2E73               	goto	u2505
  4530     167A                     l2058:
  4531     167A  3001               	movlw	1
  4532     167B  00FF               	movwf	btemp+1
  4533     167C  087F               	movf	btemp+1,w
  4534     167D  07B2               	addwf	___fladd@bexp,f
  4535     167E                     l2060:
  4536     167E  1283               	bcf	3,5	;RP0=0, select bank0
  4537     167F  1303               	bcf	3,6	;RP1=0, select bank0
  4538     1680  0831               	movf	___fladd@aexp,w
  4539     1681  0232               	subwf	___fladd@bexp,w
  4540     1682  1C03               	skipc
  4541     1683  2E85               	goto	u2511
  4542     1684  2E86               	goto	u2510
  4543     1685                     u2511:
  4544     1685  2E5F               	goto	l462
  4545     1686                     u2510:
  4546     1686                     l460:
  4547     1686  1B30               	btfsc	___fladd@signs,6
  4548     1687  2E89               	goto	u2521
  4549     1688  2E8A               	goto	u2520
  4550     1689                     u2521:
  4551     1689  2ED3               	goto	l2086
  4552     168A                     u2520:
  4553     168A                     l2062:
  4554     168A  0832               	movf	___fladd@bexp,w
  4555     168B  1D03               	btfss	3,2
  4556     168C  2E8E               	goto	u2531
  4557     168D  2E8F               	goto	u2530
  4558     168E                     u2531:
  4559     168E  2E98               	goto	l2068
  4560     168F                     u2530:
  4561     168F                     l2064:
  4562     168F  3000               	movlw	0
  4563     1690  00A3               	movwf	?___fladd+3
  4564     1691  3000               	movlw	0
  4565     1692  00A2               	movwf	?___fladd+2
  4566     1693  3000               	movlw	0
  4567     1694  00A1               	movwf	?___fladd+1
  4568     1695  3000               	movlw	0
  4569     1696  00A0               	movwf	?___fladd
  4570     1697  2FFF               	goto	l469
  4571     1698                     l2068:
  4572     1698  0824               	movf	___fladd@a,w
  4573     1699  07A0               	addwf	___fladd@b,f
  4574     169A  0825               	movf	___fladd@a+1,w
  4575     169B  1103               	clrz
  4576     169C  1803               	skipnc
  4577     169D  3E01               	addlw	1
  4578     169E  1903               	skipnz
  4579     169F  2EA1               	goto	u2541
  4580     16A0  07A1               	addwf	___fladd@b+1,f
  4581     16A1                     u2541:
  4582     16A1  0826               	movf	___fladd@a+2,w
  4583     16A2  1103               	clrz
  4584     16A3  1803               	skipnc
  4585     16A4  3E01               	addlw	1
  4586     16A5  1903               	skipnz
  4587     16A6  2EA8               	goto	u2542
  4588     16A7  07A2               	addwf	___fladd@b+2,f
  4589     16A8                     u2542:
  4590     16A8  0827               	movf	___fladd@a+3,w
  4591     16A9  1103               	clrz
  4592     16AA  1803               	skipnc
  4593     16AB  3E01               	addlw	1
  4594     16AC  1903               	skipnz
  4595     16AD  2EAF               	goto	u2543
  4596     16AE  07A3               	addwf	___fladd@b+3,f
  4597     16AF                     u2543:
  4598     16AF                     l2070:
  4599     16AF  1C23               	btfss	___fladd@b+3,0
  4600     16B0  2EB2               	goto	u2551
  4601     16B1  2EB3               	goto	u2550
  4602     16B2                     u2551:
  4603     16B2  2F87               	goto	l2122
  4604     16B3                     u2550:
  4605     16B3                     l2072:
  4606     16B3  1C33               	btfss	___fladd@grs,0
  4607     16B4  2EB6               	goto	u2561
  4608     16B5  2EB7               	goto	u2560
  4609     16B6                     u2561:
  4610     16B6  2EBE               	goto	l2076
  4611     16B7                     u2560:
  4612     16B7                     l2074:
  4613     16B7  0833               	movf	___fladd@grs,w
  4614     16B8  00A8               	movwf	??___fladd
  4615     16B9  1003               	clrc
  4616     16BA  0C28               	rrf	??___fladd,w
  4617     16BB  3801               	iorlw	1
  4618     16BC  00B3               	movwf	___fladd@grs
  4619     16BD  2EC0               	goto	l2078
  4620     16BE                     l2076:
  4621     16BE  1003               	clrc
  4622     16BF  0CB3               	rrf	___fladd@grs,f
  4623     16C0                     l2078:
  4624     16C0  1C20               	btfss	___fladd@b,0
  4625     16C1  2EC3               	goto	u2571
  4626     16C2  2EC4               	goto	u2570
  4627     16C3                     u2571:
  4628     16C3  2EC5               	goto	l2082
  4629     16C4                     u2570:
  4630     16C4                     l2080:
  4631     16C4  17B3               	bsf	___fladd@grs,7
  4632     16C5                     l2082:
  4633     16C5  3001               	movlw	1
  4634     16C6  00A8               	movwf	??___fladd
  4635     16C7                     u2585:
  4636     16C7  0D23               	rlf	___fladd@b+3,w
  4637     16C8  0CA3               	rrf	___fladd@b+3,f
  4638     16C9  0CA2               	rrf	___fladd@b+2,f
  4639     16CA  0CA1               	rrf	___fladd@b+1,f
  4640     16CB  0CA0               	rrf	___fladd@b,f
  4641     16CC  0BA8               	decfsz	??___fladd& (0+127),f
  4642     16CD  2EC7               	goto	u2585
  4643     16CE                     l2084:
  4644     16CE  3001               	movlw	1
  4645     16CF  00FF               	movwf	btemp+1
  4646     16D0  087F               	movf	btemp+1,w
  4647     16D1  07B2               	addwf	___fladd@bexp,f
  4648     16D2  2F87               	goto	l2122
  4649     16D3                     l2086:
  4650     16D3  0823               	movf	___fladd@b+3,w
  4651     16D4  3A80               	xorlw	128
  4652     16D5  00FF               	movwf	btemp+1
  4653     16D6  0827               	movf	___fladd@a+3,w
  4654     16D7  3A80               	xorlw	128
  4655     16D8  027F               	subwf	btemp+1,w
  4656     16D9  1D03               	skipz
  4657     16DA  2EE5               	goto	u2593
  4658     16DB  0826               	movf	___fladd@a+2,w
  4659     16DC  0222               	subwf	___fladd@b+2,w
  4660     16DD  1D03               	skipz
  4661     16DE  2EE5               	goto	u2593
  4662     16DF  0825               	movf	___fladd@a+1,w
  4663     16E0  0221               	subwf	___fladd@b+1,w
  4664     16E1  1D03               	skipz
  4665     16E2  2EE5               	goto	u2593
  4666     16E3  0824               	movf	___fladd@a,w
  4667     16E4  0220               	subwf	___fladd@b,w
  4668     16E5                     u2593:
  4669     16E5  1803               	skipnc
  4670     16E6  2EE8               	goto	u2591
  4671     16E7  2EE9               	goto	u2590
  4672     16E8                     u2591:
  4673     16E8  2F41               	goto	l2098
  4674     16E9                     u2590:
  4675     16E9                     l2088:
  4676     16E9  30FF               	movlw	255
  4677     16EA  00A8               	movwf	??___fladd
  4678     16EB  30FF               	movlw	255
  4679     16EC  00A9               	movwf	??___fladd+1
  4680     16ED  30FF               	movlw	255
  4681     16EE  00AA               	movwf	??___fladd+2
  4682     16EF  30FF               	movlw	255
  4683     16F0  00AB               	movwf	??___fladd+3
  4684     16F1  0824               	movf	___fladd@a,w
  4685     16F2  00AC               	movwf	??___fladd+4
  4686     16F3  0825               	movf	___fladd@a+1,w
  4687     16F4  00AD               	movwf	??___fladd+5
  4688     16F5  0826               	movf	___fladd@a+2,w
  4689     16F6  00AE               	movwf	??___fladd+6
  4690     16F7  0827               	movf	___fladd@a+3,w
  4691     16F8  00AF               	movwf	??___fladd+7
  4692     16F9  0820               	movf	___fladd@b,w
  4693     16FA  02AC               	subwf	??___fladd+4,f
  4694     16FB  0821               	movf	___fladd@b+1,w
  4695     16FC  1C03               	skipc
  4696     16FD  0F21               	incfsz	___fladd@b+1,w
  4697     16FE  2F00               	goto	u2601
  4698     16FF  2F01               	goto	u2602
  4699     1700                     u2601:
  4700     1700  02AD               	subwf	??___fladd+5,f
  4701     1701                     u2602:
  4702     1701  0822               	movf	___fladd@b+2,w
  4703     1702  1C03               	skipc
  4704     1703  0F22               	incfsz	___fladd@b+2,w
  4705     1704  2F06               	goto	u2603
  4706     1705  2F07               	goto	u2604
  4707     1706                     u2603:
  4708     1706  02AE               	subwf	??___fladd+6,f
  4709     1707                     u2604:
  4710     1707  0823               	movf	___fladd@b+3,w
  4711     1708  1C03               	skipc
  4712     1709  0F23               	incfsz	___fladd@b+3,w
  4713     170A  2F0C               	goto	u2605
  4714     170B  2F0D               	goto	u2606
  4715     170C                     u2605:
  4716     170C  02AF               	subwf	??___fladd+7,f
  4717     170D                     u2606:
  4718     170D  082C               	movf	??___fladd+4,w
  4719     170E  07A8               	addwf	??___fladd,f
  4720     170F  082D               	movf	??___fladd+5,w
  4721     1710  1803               	skipnc
  4722     1711  0F2D               	incfsz	??___fladd+5,w
  4723     1712  2F14               	goto	u2610
  4724     1713  2F15               	goto	u2611
  4725     1714                     u2610:
  4726     1714  07A9               	addwf	??___fladd+1,f
  4727     1715                     u2611:
  4728     1715  082E               	movf	??___fladd+6,w
  4729     1716  1803               	skipnc
  4730     1717  0F2E               	incfsz	??___fladd+6,w
  4731     1718  2F1A               	goto	u2612
  4732     1719  2F1B               	goto	u2613
  4733     171A                     u2612:
  4734     171A  07AA               	addwf	??___fladd+2,f
  4735     171B                     u2613:
  4736     171B  082F               	movf	??___fladd+7,w
  4737     171C  1803               	skipnc
  4738     171D  0A2F               	incf	??___fladd+7,w
  4739     171E  07AB               	addwf	??___fladd+3,f
  4740     171F  082B               	movf	??___fladd+3,w
  4741     1720  00A3               	movwf	___fladd@b+3
  4742     1721  082A               	movf	??___fladd+2,w
  4743     1722  00A2               	movwf	___fladd@b+2
  4744     1723  0829               	movf	??___fladd+1,w
  4745     1724  00A1               	movwf	___fladd@b+1
  4746     1725  0828               	movf	??___fladd,w
  4747     1726  00A0               	movwf	___fladd@b
  4748     1727                     l2090:
  4749     1727  3080               	movlw	128
  4750     1728  00FF               	movwf	btemp+1
  4751     1729  087F               	movf	btemp+1,w
  4752     172A  06B0               	xorwf	___fladd@signs,f
  4753     172B                     l2092:
  4754     172B  09B3               	comf	___fladd@grs,f
  4755     172C  0AB3               	incf	___fladd@grs,f
  4756     172D                     l2094:
  4757     172D  0833               	movf	___fladd@grs,w
  4758     172E  1D03               	btfss	3,2
  4759     172F  2F31               	goto	u2621
  4760     1730  2F32               	goto	u2620
  4761     1731                     u2621:
  4762     1731  2F4F               	goto	l477
  4763     1732                     u2620:
  4764     1732                     l2096:
  4765     1732  3001               	movlw	1
  4766     1733  07A0               	addwf	___fladd@b,f
  4767     1734  3000               	movlw	0
  4768     1735  1803               	skipnc
  4769     1736  3001               	movlw	1
  4770     1737  07A1               	addwf	___fladd@b+1,f
  4771     1738  3000               	movlw	0
  4772     1739  1803               	skipnc
  4773     173A  3001               	movlw	1
  4774     173B  07A2               	addwf	___fladd@b+2,f
  4775     173C  3000               	movlw	0
  4776     173D  1803               	skipnc
  4777     173E  3001               	movlw	1
  4778     173F  07A3               	addwf	___fladd@b+3,f
  4779     1740  2F4F               	goto	l477
  4780     1741                     l2098:
  4781     1741  0824               	movf	___fladd@a,w
  4782     1742  02A0               	subwf	___fladd@b,f
  4783     1743  0825               	movf	___fladd@a+1,w
  4784     1744  1C03               	skipc
  4785     1745  0F25               	incfsz	___fladd@a+1,w
  4786     1746  02A1               	subwf	___fladd@b+1,f
  4787     1747  0826               	movf	___fladd@a+2,w
  4788     1748  1C03               	skipc
  4789     1749  0F26               	incfsz	___fladd@a+2,w
  4790     174A  02A2               	subwf	___fladd@b+2,f
  4791     174B  0827               	movf	___fladd@a+3,w
  4792     174C  1C03               	skipc
  4793     174D  0F27               	incfsz	___fladd@a+3,w
  4794     174E  02A3               	subwf	___fladd@b+3,f
  4795     174F                     l477:
  4796     174F  0823               	movf	___fladd@b+3,w
  4797     1750  0422               	iorwf	___fladd@b+2,w
  4798     1751  0421               	iorwf	___fladd@b+1,w
  4799     1752  0420               	iorwf	___fladd@b,w
  4800     1753  1D03               	skipz
  4801     1754  2F56               	goto	u2631
  4802     1755  2F57               	goto	u2630
  4803     1756                     u2631:
  4804     1756  2F83               	goto	l2120
  4805     1757                     u2630:
  4806     1757                     l2100:
  4807     1757  0833               	movf	___fladd@grs,w
  4808     1758  1D03               	btfss	3,2
  4809     1759  2F5B               	goto	u2641
  4810     175A  2F5C               	goto	u2640
  4811     175B                     u2641:
  4812     175B  2F83               	goto	l2120
  4813     175C                     u2640:
  4814     175C                     l2102:
  4815     175C  3000               	movlw	0
  4816     175D  00A3               	movwf	?___fladd+3
  4817     175E  3000               	movlw	0
  4818     175F  00A2               	movwf	?___fladd+2
  4819     1760  3000               	movlw	0
  4820     1761  00A1               	movwf	?___fladd+1
  4821     1762  3000               	movlw	0
  4822     1763  00A0               	movwf	?___fladd
  4823     1764  2FFF               	goto	l469
  4824     1765                     l2106:
  4825     1765  3001               	movlw	1
  4826     1766  00A8               	movwf	??___fladd
  4827     1767                     u2655:
  4828     1767  1003               	clrc
  4829     1768  0DA0               	rlf	___fladd@b,f
  4830     1769  0DA1               	rlf	___fladd@b+1,f
  4831     176A  0DA2               	rlf	___fladd@b+2,f
  4832     176B  0DA3               	rlf	___fladd@b+3,f
  4833     176C  0BA8               	decfsz	??___fladd,f
  4834     176D  2F67               	goto	u2655
  4835     176E                     l2108:
  4836     176E  1FB3               	btfss	___fladd@grs,7
  4837     176F  2F71               	goto	u2661
  4838     1770  2F72               	goto	u2660
  4839     1771                     u2661:
  4840     1771  2F73               	goto	l481
  4841     1772                     u2660:
  4842     1772                     l2110:
  4843     1772  1420               	bsf	___fladd@b,0
  4844     1773                     l481:
  4845     1773  1C33               	btfss	___fladd@grs,0
  4846     1774  2F76               	goto	u2671
  4847     1775  2F77               	goto	u2670
  4848     1776                     u2671:
  4849     1776  2F7A               	goto	l2114
  4850     1777                     u2670:
  4851     1777                     l2112:
  4852     1777  1403               	setc
  4853     1778  0DB3               	rlf	___fladd@grs,f
  4854     1779  2F7C               	goto	l2116
  4855     177A                     l2114:
  4856     177A  1003               	clrc
  4857     177B  0DB3               	rlf	___fladd@grs,f
  4858     177C                     l2116:
  4859     177C  0832               	movf	___fladd@bexp,w
  4860     177D  1903               	btfsc	3,2
  4861     177E  2F80               	goto	u2681
  4862     177F  2F81               	goto	u2680
  4863     1780                     u2681:
  4864     1780  2F83               	goto	l2120
  4865     1781                     u2680:
  4866     1781                     l2118:
  4867     1781  3001               	movlw	1
  4868     1782  02B2               	subwf	___fladd@bexp,f
  4869     1783                     l2120:
  4870     1783  1FA2               	btfss	___fladd@b+2,7
  4871     1784  2F86               	goto	u2691
  4872     1785  2F87               	goto	u2690
  4873     1786                     u2691:
  4874     1786  2F65               	goto	l2106
  4875     1787                     u2690:
  4876     1787                     l2122:
  4877     1787  01B1               	clrf	___fladd@aexp
  4878     1788                     l2124:
  4879     1788  1FB3               	btfss	___fladd@grs,7
  4880     1789  2F8B               	goto	u2701
  4881     178A  2F8C               	goto	u2700
  4882     178B                     u2701:
  4883     178B  2F9A               	goto	l2132
  4884     178C                     u2700:
  4885     178C                     l2126:
  4886     178C  0833               	movf	___fladd@grs,w
  4887     178D  397F               	andlw	127
  4888     178E  1903               	btfsc	3,2
  4889     178F  2F91               	goto	u2711
  4890     1790  2F92               	goto	u2710
  4891     1791                     u2711:
  4892     1791  2F95               	goto	l487
  4893     1792                     u2710:
  4894     1792                     l2128:
  4895     1792  01B1               	clrf	___fladd@aexp
  4896     1793  0AB1               	incf	___fladd@aexp,f
  4897     1794  2F9A               	goto	l2132
  4898     1795                     l487:
  4899     1795  1C20               	btfss	___fladd@b,0
  4900     1796  2F98               	goto	u2721
  4901     1797  2F99               	goto	u2720
  4902     1798                     u2721:
  4903     1798  2F9A               	goto	l2132
  4904     1799                     u2720:
  4905     1799  2F92               	goto	l2128
  4906     179A                     l2132:
  4907     179A  0831               	movf	___fladd@aexp,w
  4908     179B  1903               	btfsc	3,2
  4909     179C  2F9E               	goto	u2731
  4910     179D  2F9F               	goto	u2730
  4911     179E                     u2731:
  4912     179E  2FD3               	goto	l2142
  4913     179F                     u2730:
  4914     179F                     l2134:
  4915     179F  3001               	movlw	1
  4916     17A0  07A0               	addwf	___fladd@b,f
  4917     17A1  3000               	movlw	0
  4918     17A2  1803               	skipnc
  4919     17A3  3001               	movlw	1
  4920     17A4  07A1               	addwf	___fladd@b+1,f
  4921     17A5  3000               	movlw	0
  4922     17A6  1803               	skipnc
  4923     17A7  3001               	movlw	1
  4924     17A8  07A2               	addwf	___fladd@b+2,f
  4925     17A9  3000               	movlw	0
  4926     17AA  1803               	skipnc
  4927     17AB  3001               	movlw	1
  4928     17AC  07A3               	addwf	___fladd@b+3,f
  4929     17AD                     l2136:
  4930     17AD  1C23               	btfss	___fladd@b+3,0
  4931     17AE  2FB0               	goto	u2741
  4932     17AF  2FB1               	goto	u2740
  4933     17B0                     u2741:
  4934     17B0  2FD3               	goto	l2142
  4935     17B1                     u2740:
  4936     17B1                     l2138:
  4937     17B1  0820               	movf	___fladd@b,w
  4938     17B2  00A8               	movwf	??___fladd
  4939     17B3  0821               	movf	___fladd@b+1,w
  4940     17B4  00A9               	movwf	??___fladd+1
  4941     17B5  0822               	movf	___fladd@b+2,w
  4942     17B6  00AA               	movwf	??___fladd+2
  4943     17B7  0823               	movf	___fladd@b+3,w
  4944     17B8  00AB               	movwf	??___fladd+3
  4945     17B9  3001               	movlw	1
  4946     17BA  00AC               	movwf	??___fladd+4
  4947     17BB                     u2755:
  4948     17BB  0D2B               	rlf	??___fladd+3,w
  4949     17BC  0CAB               	rrf	??___fladd+3,f
  4950     17BD  0CAA               	rrf	??___fladd+2,f
  4951     17BE  0CA9               	rrf	??___fladd+1,f
  4952     17BF  0CA8               	rrf	??___fladd,f
  4953     17C0                     u2750:
  4954     17C0  0BAC               	decfsz	??___fladd+4,f
  4955     17C1  2FBB               	goto	u2755
  4956     17C2  082B               	movf	??___fladd+3,w
  4957     17C3  00A3               	movwf	___fladd@b+3
  4958     17C4  082A               	movf	??___fladd+2,w
  4959     17C5  00A2               	movwf	___fladd@b+2
  4960     17C6  0829               	movf	??___fladd+1,w
  4961     17C7  00A1               	movwf	___fladd@b+1
  4962     17C8  0828               	movf	??___fladd,w
  4963     17C9  00A0               	movwf	___fladd@b
  4964     17CA  0A32               	incf	___fladd@bexp,w
  4965     17CB  1903               	btfsc	3,2
  4966     17CC  2FCE               	goto	u2761
  4967     17CD  2FCF               	goto	u2760
  4968     17CE                     u2761:
  4969     17CE  2FD3               	goto	l2142
  4970     17CF                     u2760:
  4971     17CF                     l2140:
  4972     17CF  3001               	movlw	1
  4973     17D0  00FF               	movwf	btemp+1
  4974     17D1  087F               	movf	btemp+1,w
  4975     17D2  07B2               	addwf	___fladd@bexp,f
  4976     17D3                     l2142:
  4977     17D3  0A32               	incf	___fladd@bexp,w
  4978     17D4  1903               	btfsc	3,2
  4979     17D5  2FD7               	goto	u2771
  4980     17D6  2FD8               	goto	u2770
  4981     17D7                     u2771:
  4982     17D7  2FDD               	goto	l2146
  4983     17D8                     u2770:
  4984     17D8                     l2144:
  4985     17D8  0832               	movf	___fladd@bexp,w
  4986     17D9  1D03               	btfss	3,2
  4987     17DA  2FDC               	goto	u2781
  4988     17DB  2FDD               	goto	u2780
  4989     17DC                     u2781:
  4990     17DC  2FEB               	goto	l2152
  4991     17DD                     u2780:
  4992     17DD                     l2146:
  4993     17DD  3000               	movlw	0
  4994     17DE  00A3               	movwf	___fladd@b+3
  4995     17DF  3000               	movlw	0
  4996     17E0  00A2               	movwf	___fladd@b+2
  4997     17E1  3000               	movlw	0
  4998     17E2  00A1               	movwf	___fladd@b+1
  4999     17E3  3000               	movlw	0
  5000     17E4  00A0               	movwf	___fladd@b
  5001     17E5                     l2148:
  5002     17E5  0832               	movf	___fladd@bexp,w
  5003     17E6  1D03               	btfss	3,2
  5004     17E7  2FE9               	goto	u2791
  5005     17E8  2FEA               	goto	u2790
  5006     17E9                     u2791:
  5007     17E9  2FEB               	goto	l2152
  5008     17EA                     u2790:
  5009     17EA                     l2150:
  5010     17EA  01B0               	clrf	___fladd@signs
  5011     17EB                     l2152:
  5012     17EB  1C32               	btfss	___fladd@bexp,0
  5013     17EC  2FEE               	goto	u2801
  5014     17ED  2FEF               	goto	u2800
  5015     17EE                     u2801:
  5016     17EE  2FF1               	goto	l2156
  5017     17EF                     u2800:
  5018     17EF                     l2154:
  5019     17EF  17A2               	bsf	___fladd@b+2,7
  5020     17F0  2FF5               	goto	l2158
  5021     17F1                     l2156:
  5022     17F1  307F               	movlw	127
  5023     17F2  00FF               	movwf	btemp+1
  5024     17F3  087F               	movf	btemp+1,w
  5025     17F4  05A2               	andwf	___fladd@b+2,f
  5026     17F5                     l2158:
  5027     17F5  0832               	movf	___fladd@bexp,w
  5028     17F6  00A8               	movwf	??___fladd
  5029     17F7  1003               	clrc
  5030     17F8  0C28               	rrf	??___fladd,w
  5031     17F9  00A3               	movwf	___fladd@b+3
  5032     17FA                     l2160:
  5033     17FA  1FB0               	btfss	___fladd@signs,7
  5034     17FB  2FFD               	goto	u2811
  5035     17FC  2FFE               	goto	u2810
  5036     17FD                     u2811:
  5037     17FD  2FFF               	goto	l499
  5038     17FE                     u2810:
  5039     17FE                     l2162:
  5040     17FE  17A3               	bsf	___fladd@b+3,7
  5041     17FF                     l499:
  5042     17FF                     l469:
  5043     17FF  0008               	return
  5044     1800                     __end_of___fladd:
  5045                           
  5046                           	psect	text19
  5047     1DAE                     __ptext19:	
  5048 ;; *************** function ___flneg *****************
  5049 ;; Defined at:
  5050 ;;		line 15 in file "C:\Program Files\Microchip\xc8\v2.46\pic\sources\c99\common\flneg.c"
  5051 ;; Parameters:    Size  Location     Type
  5052 ;;  f1              4    0[BANK0 ] unsigned char 
  5053 ;; Auto vars:     Size  Location     Type
  5054 ;;		None
  5055 ;; Return value:  Size  Location     Type
  5056 ;;                  4    0[BANK0 ] unsigned char 
  5057 ;; Registers used:
  5058 ;;		wreg
  5059 ;; Tracked objects:
  5060 ;;		On entry : 0/0
  5061 ;;		On exit  : 0/0
  5062 ;;		Unchanged: 0/0
  5063 ;; Data sizes:     COMMON   BANK0   BANK1   BANK3   BANK2
  5064 ;;      Params:         0       4       0       0       0
  5065 ;;      Locals:         0       0       0       0       0
  5066 ;;      Temps:          0       0       0       0       0
  5067 ;;      Totals:         0       4       0       0       0
  5068 ;;Total ram usage:        4 bytes
  5069 ;; Hardware stack levels used: 1
  5070 ;; Hardware stack levels required when called: 3
  5071 ;; This function calls:
  5072 ;;		Nothing
  5073 ;; This function is called by:
  5074 ;;		_efgtoa
  5075 ;; This function uses a non-reentrant model
  5076 ;;
  5077                           
  5078     1DAE                     ___flneg:	
  5079                           ;psect for function ___flneg
  5080                           
  5081     1DAE                     l2232:	
  5082                           ;incstack = 0
  5083                           ; Regs used in ___flneg: [wreg]
  5084                           
  5085     1DAE  1283               	bcf	3,5	;RP0=0, select bank0
  5086     1DAF  1303               	bcf	3,6	;RP1=0, select bank0
  5087     1DB0  0823               	movf	___flneg@f1+3,w
  5088     1DB1  0422               	iorwf	___flneg@f1+2,w
  5089     1DB2  0421               	iorwf	___flneg@f1+1,w
  5090     1DB3  0420               	iorwf	___flneg@f1,w
  5091     1DB4  1903               	skipnz
  5092     1DB5  2DB7               	goto	u3001
  5093     1DB6  2DB8               	goto	u3000
  5094     1DB7                     u3001:
  5095     1DB7  2DBA               	goto	l2236
  5096     1DB8                     u3000:
  5097     1DB8                     l2234:
  5098     1DB8  3080               	movlw	128
  5099     1DB9  06A3               	xorwf	___flneg@f1+3,f
  5100     1DBA                     l2236:
  5101     1DBA                     l345:
  5102     1DBA  0008               	return
  5103     1DBB                     __end_of___flneg:
  5104                           
  5105                           	psect	text20
  5106     0CBB                     __ptext20:	
  5107 ;; *************** function ___flmul *****************
  5108 ;; Defined at:
  5109 ;;		line 8 in file "C:\Program Files\Microchip\xc8\v2.46\pic\sources\c99\common\sprcmul.c"
  5110 ;; Parameters:    Size  Location     Type
  5111 ;;  b               4   14[BANK0 ] unsigned char 
  5112 ;;  a               4   18[BANK0 ] unsigned char 
  5113 ;; Auto vars:     Size  Location     Type
  5114 ;;  prod            4   34[BANK0 ] struct .
  5115 ;;  grs             4   28[BANK0 ] unsigned long 
  5116 ;;  temp            2   38[BANK0 ] struct .
  5117 ;;  bexp            1   33[BANK0 ] unsigned char 
  5118 ;;  aexp            1   32[BANK0 ] unsigned char 
  5119 ;;  sign            1   27[BANK0 ] unsigned char 
  5120 ;; Return value:  Size  Location     Type
  5121 ;;                  4   14[BANK0 ] unsigned char 
  5122 ;; Registers used:
  5123 ;;		wreg, status,2, status,0, btemp+1, pclath, cstack
  5124 ;; Tracked objects:
  5125 ;;		On entry : 0/0
  5126 ;;		On exit  : 0/0
  5127 ;;		Unchanged: 0/0
  5128 ;; Data sizes:     COMMON   BANK0   BANK1   BANK3   BANK2
  5129 ;;      Params:         0       8       0       0       0
  5130 ;;      Locals:         0      13       0       0       0
  5131 ;;      Temps:          0       5       0       0       0
  5132 ;;      Totals:         0      26       0       0       0
  5133 ;;Total ram usage:       26 bytes
  5134 ;; Hardware stack levels used: 1
  5135 ;; Hardware stack levels required when called: 4
  5136 ;; This function calls:
  5137 ;;		__Umul8_16
  5138 ;; This function is called by:
  5139 ;;		_main
  5140 ;;		_efgtoa
  5141 ;; This function uses a non-reentrant model
  5142 ;;
  5143                           
  5144     0CBB                     ___flmul:	
  5145                           ;psect for function ___flmul
  5146                           
  5147     0CBB                     l2430:	
  5148                           ;incstack = 0
  5149 ;; hardware stack exceeded
  5150                           ; Regs used in ___flmul: [wreg+status,2+status,0+btemp+1+pclath+cstack]
  5151                           
  5152     0CBB  1283               	bcf	3,5	;RP0=0, select bank0
  5153     0CBC  1303               	bcf	3,6	;RP1=0, select bank0
  5154     0CBD  0831               	movf	___flmul@b+3,w
  5155     0CBE  3980               	andlw	128
  5156     0CBF  00BB               	movwf	___flmul@sign
  5157     0CC0                     l2432:
  5158     0CC0  0831               	movf	___flmul@b+3,w
  5159     0CC1  00B6               	movwf	??___flmul
  5160     0CC2  0736               	addwf	??___flmul,w
  5161     0CC3  00C1               	movwf	___flmul@bexp
  5162     0CC4                     l2434:
  5163     0CC4  1FB0               	btfss	___flmul@b+2,7
  5164     0CC5  2CC7               	goto	u3401
  5165     0CC6  2CC8               	goto	u3400
  5166     0CC7                     u3401:
  5167     0CC7  2CC9               	goto	l2438
  5168     0CC8                     u3400:
  5169     0CC8                     l2436:
  5170     0CC8  1441               	bsf	___flmul@bexp,0
  5171     0CC9                     l2438:
  5172     0CC9  0841               	movf	___flmul@bexp,w
  5173     0CCA  1903               	btfsc	3,2
  5174     0CCB  2CCD               	goto	u3411
  5175     0CCC  2CCE               	goto	u3410
  5176     0CCD                     u3411:
  5177     0CCD  2CDD               	goto	l2446
  5178     0CCE                     u3410:
  5179     0CCE                     l2440:
  5180     0CCE  0A41               	incf	___flmul@bexp,w
  5181     0CCF  1D03               	btfss	3,2
  5182     0CD0  2CD2               	goto	u3421
  5183     0CD1  2CD3               	goto	u3420
  5184     0CD2                     u3421:
  5185     0CD2  2CDB               	goto	l2444
  5186     0CD3                     u3420:
  5187     0CD3                     l2442:
  5188     0CD3  3000               	movlw	0
  5189     0CD4  00B1               	movwf	___flmul@b+3
  5190     0CD5  3000               	movlw	0
  5191     0CD6  00B0               	movwf	___flmul@b+2
  5192     0CD7  3000               	movlw	0
  5193     0CD8  00AF               	movwf	___flmul@b+1
  5194     0CD9  3000               	movlw	0
  5195     0CDA  00AE               	movwf	___flmul@b
  5196     0CDB                     l2444:
  5197     0CDB  17B0               	bsf	___flmul@b+2,7
  5198     0CDC  2CE5               	goto	l2448
  5199     0CDD                     l2446:
  5200     0CDD  3000               	movlw	0
  5201     0CDE  00B1               	movwf	___flmul@b+3
  5202     0CDF  3000               	movlw	0
  5203     0CE0  00B0               	movwf	___flmul@b+2
  5204     0CE1  3000               	movlw	0
  5205     0CE2  00AF               	movwf	___flmul@b+1
  5206     0CE3  3000               	movlw	0
  5207     0CE4  00AE               	movwf	___flmul@b
  5208     0CE5                     l2448:
  5209     0CE5  0835               	movf	___flmul@a+3,w
  5210     0CE6  3980               	andlw	128
  5211     0CE7  00FF               	movwf	btemp+1
  5212     0CE8  087F               	movf	btemp+1,w
  5213     0CE9  06BB               	xorwf	___flmul@sign,f
  5214     0CEA                     l2450:
  5215     0CEA  0835               	movf	___flmul@a+3,w
  5216     0CEB  00B6               	movwf	??___flmul
  5217     0CEC  0736               	addwf	??___flmul,w
  5218     0CED  00C0               	movwf	___flmul@aexp
  5219     0CEE                     l2452:
  5220     0CEE  1FB4               	btfss	___flmul@a+2,7
  5221     0CEF  2CF1               	goto	u3431
  5222     0CF0  2CF2               	goto	u3430
  5223     0CF1                     u3431:
  5224     0CF1  2CF3               	goto	l2456
  5225     0CF2                     u3430:
  5226     0CF2                     l2454:
  5227     0CF2  1440               	bsf	___flmul@aexp,0
  5228     0CF3                     l2456:
  5229     0CF3  0840               	movf	___flmul@aexp,w
  5230     0CF4  1903               	btfsc	3,2
  5231     0CF5  2CF7               	goto	u3441
  5232     0CF6  2CF8               	goto	u3440
  5233     0CF7                     u3441:
  5234     0CF7  2D07               	goto	l2464
  5235     0CF8                     u3440:
  5236     0CF8                     l2458:
  5237     0CF8  0A40               	incf	___flmul@aexp,w
  5238     0CF9  1D03               	btfss	3,2
  5239     0CFA  2CFC               	goto	u3451
  5240     0CFB  2CFD               	goto	u3450
  5241     0CFC                     u3451:
  5242     0CFC  2D05               	goto	l2462
  5243     0CFD                     u3450:
  5244     0CFD                     l2460:
  5245     0CFD  3000               	movlw	0
  5246     0CFE  00B5               	movwf	___flmul@a+3
  5247     0CFF  3000               	movlw	0
  5248     0D00  00B4               	movwf	___flmul@a+2
  5249     0D01  3000               	movlw	0
  5250     0D02  00B3               	movwf	___flmul@a+1
  5251     0D03  3000               	movlw	0
  5252     0D04  00B2               	movwf	___flmul@a
  5253     0D05                     l2462:
  5254     0D05  17B4               	bsf	___flmul@a+2,7
  5255     0D06  2D0F               	goto	l2466
  5256     0D07                     l2464:
  5257     0D07  3000               	movlw	0
  5258     0D08  00B5               	movwf	___flmul@a+3
  5259     0D09  3000               	movlw	0
  5260     0D0A  00B4               	movwf	___flmul@a+2
  5261     0D0B  3000               	movlw	0
  5262     0D0C  00B3               	movwf	___flmul@a+1
  5263     0D0D  3000               	movlw	0
  5264     0D0E  00B2               	movwf	___flmul@a
  5265     0D0F                     l2466:
  5266     0D0F  0840               	movf	___flmul@aexp,w
  5267     0D10  1903               	btfsc	3,2
  5268     0D11  2D13               	goto	u3461
  5269     0D12  2D14               	goto	u3460
  5270     0D13                     u3461:
  5271     0D13  2D19               	goto	l2470
  5272     0D14                     u3460:
  5273     0D14                     l2468:
  5274     0D14  0841               	movf	___flmul@bexp,w
  5275     0D15  1D03               	btfss	3,2
  5276     0D16  2D18               	goto	u3471
  5277     0D17  2D19               	goto	u3470
  5278     0D18                     u3471:
  5279     0D18  2D22               	goto	l2474
  5280     0D19                     u3470:
  5281     0D19                     l2470:
  5282     0D19  3000               	movlw	0
  5283     0D1A  00B1               	movwf	?___flmul+3
  5284     0D1B  3000               	movlw	0
  5285     0D1C  00B0               	movwf	?___flmul+2
  5286     0D1D  3000               	movlw	0
  5287     0D1E  00AF               	movwf	?___flmul+1
  5288     0D1F  3000               	movlw	0
  5289     0D20  00AE               	movwf	?___flmul
  5290     0D21  2FFF               	goto	l552
  5291     0D22                     l2474:
  5292     0D22  082E               	movf	___flmul@b,w
  5293     0D23  00A0               	movwf	__Umul8_16@multiplicand
  5294     0D24  0834               	movf	___flmul@a+2,w
  5295     0D25  160A  158A  26C5  120A  158A  	fcall	__Umul8_16
  5296     0D2A  1283               	bcf	3,5	;RP0=0, select bank0
  5297     0D2B  1303               	bcf	3,6	;RP1=0, select bank0
  5298     0D2C  0821               	movf	?__Umul8_16+1,w
  5299     0D2D  00C7               	movwf	___flmul@temp+1
  5300     0D2E  0820               	movf	?__Umul8_16,w
  5301     0D2F  00C6               	movwf	___flmul@temp
  5302     0D30                     l2476:
  5303     0D30  0846               	movf	___flmul@temp,w
  5304     0D31  00B6               	movwf	??___flmul
  5305     0D32  01B7               	clrf	??___flmul+1
  5306     0D33  01B8               	clrf	??___flmul+2
  5307     0D34  01B9               	clrf	??___flmul+3
  5308     0D35  0839               	movf	??___flmul+3,w
  5309     0D36  00BF               	movwf	___flmul@grs+3
  5310     0D37  0838               	movf	??___flmul+2,w
  5311     0D38  00BE               	movwf	___flmul@grs+2
  5312     0D39  0837               	movf	??___flmul+1,w
  5313     0D3A  00BD               	movwf	___flmul@grs+1
  5314     0D3B  0836               	movf	??___flmul,w
  5315     0D3C  00BC               	movwf	___flmul@grs
  5316     0D3D                     l2478:
  5317     0D3D  0847               	movf	___flmul@temp+1,w
  5318     0D3E  00B6               	movwf	??___flmul
  5319     0D3F  01B7               	clrf	??___flmul+1
  5320     0D40  01B8               	clrf	??___flmul+2
  5321     0D41  01B9               	clrf	??___flmul+3
  5322     0D42  0839               	movf	??___flmul+3,w
  5323     0D43  00C5               	movwf	___flmul@prod+3
  5324     0D44  0838               	movf	??___flmul+2,w
  5325     0D45  00C4               	movwf	___flmul@prod+2
  5326     0D46  0837               	movf	??___flmul+1,w
  5327     0D47  00C3               	movwf	___flmul@prod+1
  5328     0D48  0836               	movf	??___flmul,w
  5329     0D49  00C2               	movwf	___flmul@prod
  5330     0D4A  082F               	movf	___flmul@b+1,w
  5331     0D4B  00A0               	movwf	__Umul8_16@multiplicand
  5332     0D4C  0833               	movf	___flmul@a+1,w
  5333     0D4D  160A  158A  26C5  120A  158A  	fcall	__Umul8_16
  5334     0D52  1283               	bcf	3,5	;RP0=0, select bank0
  5335     0D53  1303               	bcf	3,6	;RP1=0, select bank0
  5336     0D54  0821               	movf	?__Umul8_16+1,w
  5337     0D55  00C7               	movwf	___flmul@temp+1
  5338     0D56  0820               	movf	?__Umul8_16,w
  5339     0D57  00C6               	movwf	___flmul@temp
  5340     0D58                     l2480:
  5341     0D58  0846               	movf	___flmul@temp,w
  5342     0D59  00B6               	movwf	??___flmul
  5343     0D5A  01B7               	clrf	??___flmul+1
  5344     0D5B  01B8               	clrf	??___flmul+2
  5345     0D5C  01B9               	clrf	??___flmul+3
  5346     0D5D  0836               	movf	??___flmul,w
  5347     0D5E  07BC               	addwf	___flmul@grs,f
  5348     0D5F  0837               	movf	??___flmul+1,w
  5349     0D60  1103               	clrz
  5350     0D61  1803               	skipnc
  5351     0D62  3E01               	addlw	1
  5352     0D63  1903               	skipnz
  5353     0D64  2D66               	goto	u3481
  5354     0D65  07BD               	addwf	___flmul@grs+1,f
  5355     0D66                     u3481:
  5356     0D66  0838               	movf	??___flmul+2,w
  5357     0D67  1103               	clrz
  5358     0D68  1803               	skipnc
  5359     0D69  3E01               	addlw	1
  5360     0D6A  1903               	skipnz
  5361     0D6B  2D6D               	goto	u3482
  5362     0D6C  07BE               	addwf	___flmul@grs+2,f
  5363     0D6D                     u3482:
  5364     0D6D  0839               	movf	??___flmul+3,w
  5365     0D6E  1103               	clrz
  5366     0D6F  1803               	skipnc
  5367     0D70  3E01               	addlw	1
  5368     0D71  1903               	skipnz
  5369     0D72  2D74               	goto	u3483
  5370     0D73  07BF               	addwf	___flmul@grs+3,f
  5371     0D74                     u3483:
  5372     0D74                     l2482:
  5373     0D74  0847               	movf	___flmul@temp+1,w
  5374     0D75  00B6               	movwf	??___flmul
  5375     0D76  01B7               	clrf	??___flmul+1
  5376     0D77  01B8               	clrf	??___flmul+2
  5377     0D78  01B9               	clrf	??___flmul+3
  5378     0D79  0836               	movf	??___flmul,w
  5379     0D7A  07C2               	addwf	___flmul@prod,f
  5380     0D7B  0837               	movf	??___flmul+1,w
  5381     0D7C  1103               	clrz
  5382     0D7D  1803               	skipnc
  5383     0D7E  3E01               	addlw	1
  5384     0D7F  1903               	skipnz
  5385     0D80  2D82               	goto	u3491
  5386     0D81  07C3               	addwf	___flmul@prod+1,f
  5387     0D82                     u3491:
  5388     0D82  0838               	movf	??___flmul+2,w
  5389     0D83  1103               	clrz
  5390     0D84  1803               	skipnc
  5391     0D85  3E01               	addlw	1
  5392     0D86  1903               	skipnz
  5393     0D87  2D89               	goto	u3492
  5394     0D88  07C4               	addwf	___flmul@prod+2,f
  5395     0D89                     u3492:
  5396     0D89  0839               	movf	??___flmul+3,w
  5397     0D8A  1103               	clrz
  5398     0D8B  1803               	skipnc
  5399     0D8C  3E01               	addlw	1
  5400     0D8D  1903               	skipnz
  5401     0D8E  2D90               	goto	u3493
  5402     0D8F  07C5               	addwf	___flmul@prod+3,f
  5403     0D90                     u3493:
  5404     0D90  0830               	movf	___flmul@b+2,w
  5405     0D91  00A0               	movwf	__Umul8_16@multiplicand
  5406     0D92  0832               	movf	___flmul@a,w
  5407     0D93  160A  158A  26C5  120A  158A  	fcall	__Umul8_16
  5408     0D98  1283               	bcf	3,5	;RP0=0, select bank0
  5409     0D99  1303               	bcf	3,6	;RP1=0, select bank0
  5410     0D9A  0821               	movf	?__Umul8_16+1,w
  5411     0D9B  00C7               	movwf	___flmul@temp+1
  5412     0D9C  0820               	movf	?__Umul8_16,w
  5413     0D9D  00C6               	movwf	___flmul@temp
  5414     0D9E                     l2484:
  5415     0D9E  0846               	movf	___flmul@temp,w
  5416     0D9F  00B6               	movwf	??___flmul
  5417     0DA0  01B7               	clrf	??___flmul+1
  5418     0DA1  01B8               	clrf	??___flmul+2
  5419     0DA2  01B9               	clrf	??___flmul+3
  5420     0DA3  0836               	movf	??___flmul,w
  5421     0DA4  07BC               	addwf	___flmul@grs,f
  5422     0DA5  0837               	movf	??___flmul+1,w
  5423     0DA6  1103               	clrz
  5424     0DA7  1803               	skipnc
  5425     0DA8  3E01               	addlw	1
  5426     0DA9  1903               	skipnz
  5427     0DAA  2DAC               	goto	u3501
  5428     0DAB  07BD               	addwf	___flmul@grs+1,f
  5429     0DAC                     u3501:
  5430     0DAC  0838               	movf	??___flmul+2,w
  5431     0DAD  1103               	clrz
  5432     0DAE  1803               	skipnc
  5433     0DAF  3E01               	addlw	1
  5434     0DB0  1903               	skipnz
  5435     0DB1  2DB3               	goto	u3502
  5436     0DB2  07BE               	addwf	___flmul@grs+2,f
  5437     0DB3                     u3502:
  5438     0DB3  0839               	movf	??___flmul+3,w
  5439     0DB4  1103               	clrz
  5440     0DB5  1803               	skipnc
  5441     0DB6  3E01               	addlw	1
  5442     0DB7  1903               	skipnz
  5443     0DB8  2DBA               	goto	u3503
  5444     0DB9  07BF               	addwf	___flmul@grs+3,f
  5445     0DBA                     u3503:
  5446     0DBA                     l2486:
  5447     0DBA  0847               	movf	___flmul@temp+1,w
  5448     0DBB  00B6               	movwf	??___flmul
  5449     0DBC  01B7               	clrf	??___flmul+1
  5450     0DBD  01B8               	clrf	??___flmul+2
  5451     0DBE  01B9               	clrf	??___flmul+3
  5452     0DBF  0836               	movf	??___flmul,w
  5453     0DC0  07C2               	addwf	___flmul@prod,f
  5454     0DC1  0837               	movf	??___flmul+1,w
  5455     0DC2  1103               	clrz
  5456     0DC3  1803               	skipnc
  5457     0DC4  3E01               	addlw	1
  5458     0DC5  1903               	skipnz
  5459     0DC6  2DC8               	goto	u3511
  5460     0DC7  07C3               	addwf	___flmul@prod+1,f
  5461     0DC8                     u3511:
  5462     0DC8  0838               	movf	??___flmul+2,w
  5463     0DC9  1103               	clrz
  5464     0DCA  1803               	skipnc
  5465     0DCB  3E01               	addlw	1
  5466     0DCC  1903               	skipnz
  5467     0DCD  2DCF               	goto	u3512
  5468     0DCE  07C4               	addwf	___flmul@prod+2,f
  5469     0DCF                     u3512:
  5470     0DCF  0839               	movf	??___flmul+3,w
  5471     0DD0  1103               	clrz
  5472     0DD1  1803               	skipnc
  5473     0DD2  3E01               	addlw	1
  5474     0DD3  1903               	skipnz
  5475     0DD4  2DD6               	goto	u3513
  5476     0DD5  07C5               	addwf	___flmul@prod+3,f
  5477     0DD6                     u3513:
  5478     0DD6                     l2488:
  5479     0DD6  3008               	movlw	8
  5480     0DD7  00B6               	movwf	??___flmul
  5481     0DD8                     u3525:
  5482     0DD8  1003               	clrc
  5483     0DD9  0DBC               	rlf	___flmul@grs,f
  5484     0DDA  0DBD               	rlf	___flmul@grs+1,f
  5485     0DDB  0DBE               	rlf	___flmul@grs+2,f
  5486     0DDC  0DBF               	rlf	___flmul@grs+3,f
  5487     0DDD  0BB6               	decfsz	??___flmul,f
  5488     0DDE  2DD8               	goto	u3525
  5489     0DDF                     l2490:
  5490     0DDF  082F               	movf	___flmul@b+1,w
  5491     0DE0  00A0               	movwf	__Umul8_16@multiplicand
  5492     0DE1  0832               	movf	___flmul@a,w
  5493     0DE2  160A  158A  26C5  120A  158A  	fcall	__Umul8_16
  5494     0DE7  1283               	bcf	3,5	;RP0=0, select bank0
  5495     0DE8  1303               	bcf	3,6	;RP1=0, select bank0
  5496     0DE9  0821               	movf	?__Umul8_16+1,w
  5497     0DEA  00C7               	movwf	___flmul@temp+1
  5498     0DEB  0820               	movf	?__Umul8_16,w
  5499     0DEC  00C6               	movwf	___flmul@temp
  5500     0DED                     l2492:
  5501     0DED  0846               	movf	___flmul@temp,w
  5502     0DEE  00B6               	movwf	??___flmul
  5503     0DEF  0847               	movf	___flmul@temp+1,w
  5504     0DF0  00B7               	movwf	??___flmul+1
  5505     0DF1  01B8               	clrf	??___flmul+2
  5506     0DF2  01B9               	clrf	??___flmul+3
  5507     0DF3  0836               	movf	??___flmul,w
  5508     0DF4  07BC               	addwf	___flmul@grs,f
  5509     0DF5  0837               	movf	??___flmul+1,w
  5510     0DF6  1103               	clrz
  5511     0DF7  1803               	skipnc
  5512     0DF8  3E01               	addlw	1
  5513     0DF9  1903               	skipnz
  5514     0DFA  2DFC               	goto	u3531
  5515     0DFB  07BD               	addwf	___flmul@grs+1,f
  5516     0DFC                     u3531:
  5517     0DFC  0838               	movf	??___flmul+2,w
  5518     0DFD  1103               	clrz
  5519     0DFE  1803               	skipnc
  5520     0DFF  3E01               	addlw	1
  5521     0E00  1903               	skipnz
  5522     0E01  2E03               	goto	u3532
  5523     0E02  07BE               	addwf	___flmul@grs+2,f
  5524     0E03                     u3532:
  5525     0E03  0839               	movf	??___flmul+3,w
  5526     0E04  1103               	clrz
  5527     0E05  1803               	skipnc
  5528     0E06  3E01               	addlw	1
  5529     0E07  1903               	skipnz
  5530     0E08  2E0A               	goto	u3533
  5531     0E09  07BF               	addwf	___flmul@grs+3,f
  5532     0E0A                     u3533:
  5533     0E0A                     l2494:
  5534     0E0A  082E               	movf	___flmul@b,w
  5535     0E0B  00A0               	movwf	__Umul8_16@multiplicand
  5536     0E0C  0833               	movf	___flmul@a+1,w
  5537     0E0D  160A  158A  26C5  120A  158A  	fcall	__Umul8_16
  5538     0E12  1283               	bcf	3,5	;RP0=0, select bank0
  5539     0E13  1303               	bcf	3,6	;RP1=0, select bank0
  5540     0E14  0821               	movf	?__Umul8_16+1,w
  5541     0E15  00C7               	movwf	___flmul@temp+1
  5542     0E16  0820               	movf	?__Umul8_16,w
  5543     0E17  00C6               	movwf	___flmul@temp
  5544     0E18                     l2496:
  5545     0E18  0846               	movf	___flmul@temp,w
  5546     0E19  00B6               	movwf	??___flmul
  5547     0E1A  0847               	movf	___flmul@temp+1,w
  5548     0E1B  00B7               	movwf	??___flmul+1
  5549     0E1C  01B8               	clrf	??___flmul+2
  5550     0E1D  01B9               	clrf	??___flmul+3
  5551     0E1E  0836               	movf	??___flmul,w
  5552     0E1F  07BC               	addwf	___flmul@grs,f
  5553     0E20  0837               	movf	??___flmul+1,w
  5554     0E21  1103               	clrz
  5555     0E22  1803               	skipnc
  5556     0E23  3E01               	addlw	1
  5557     0E24  1903               	skipnz
  5558     0E25  2E27               	goto	u3541
  5559     0E26  07BD               	addwf	___flmul@grs+1,f
  5560     0E27                     u3541:
  5561     0E27  0838               	movf	??___flmul+2,w
  5562     0E28  1103               	clrz
  5563     0E29  1803               	skipnc
  5564     0E2A  3E01               	addlw	1
  5565     0E2B  1903               	skipnz
  5566     0E2C  2E2E               	goto	u3542
  5567     0E2D  07BE               	addwf	___flmul@grs+2,f
  5568     0E2E                     u3542:
  5569     0E2E  0839               	movf	??___flmul+3,w
  5570     0E2F  1103               	clrz
  5571     0E30  1803               	skipnc
  5572     0E31  3E01               	addlw	1
  5573     0E32  1903               	skipnz
  5574     0E33  2E35               	goto	u3543
  5575     0E34  07BF               	addwf	___flmul@grs+3,f
  5576     0E35                     u3543:
  5577     0E35                     l2498:
  5578     0E35  3008               	movlw	8
  5579     0E36  00B6               	movwf	??___flmul
  5580     0E37                     u3555:
  5581     0E37  1003               	clrc
  5582     0E38  0DBC               	rlf	___flmul@grs,f
  5583     0E39  0DBD               	rlf	___flmul@grs+1,f
  5584     0E3A  0DBE               	rlf	___flmul@grs+2,f
  5585     0E3B  0DBF               	rlf	___flmul@grs+3,f
  5586     0E3C  0BB6               	decfsz	??___flmul,f
  5587     0E3D  2E37               	goto	u3555
  5588     0E3E  082E               	movf	___flmul@b,w
  5589     0E3F  00A0               	movwf	__Umul8_16@multiplicand
  5590     0E40  0832               	movf	___flmul@a,w
  5591     0E41  160A  158A  26C5  120A  158A  	fcall	__Umul8_16
  5592     0E46  1283               	bcf	3,5	;RP0=0, select bank0
  5593     0E47  1303               	bcf	3,6	;RP1=0, select bank0
  5594     0E48  0821               	movf	?__Umul8_16+1,w
  5595     0E49  00C7               	movwf	___flmul@temp+1
  5596     0E4A  0820               	movf	?__Umul8_16,w
  5597     0E4B  00C6               	movwf	___flmul@temp
  5598     0E4C                     l2500:
  5599     0E4C  0846               	movf	___flmul@temp,w
  5600     0E4D  00B6               	movwf	??___flmul
  5601     0E4E  0847               	movf	___flmul@temp+1,w
  5602     0E4F  00B7               	movwf	??___flmul+1
  5603     0E50  01B8               	clrf	??___flmul+2
  5604     0E51  01B9               	clrf	??___flmul+3
  5605     0E52  0836               	movf	??___flmul,w
  5606     0E53  07BC               	addwf	___flmul@grs,f
  5607     0E54  0837               	movf	??___flmul+1,w
  5608     0E55  1103               	clrz
  5609     0E56  1803               	skipnc
  5610     0E57  3E01               	addlw	1
  5611     0E58  1903               	skipnz
  5612     0E59  2E5B               	goto	u3561
  5613     0E5A  07BD               	addwf	___flmul@grs+1,f
  5614     0E5B                     u3561:
  5615     0E5B  0838               	movf	??___flmul+2,w
  5616     0E5C  1103               	clrz
  5617     0E5D  1803               	skipnc
  5618     0E5E  3E01               	addlw	1
  5619     0E5F  1903               	skipnz
  5620     0E60  2E62               	goto	u3562
  5621     0E61  07BE               	addwf	___flmul@grs+2,f
  5622     0E62                     u3562:
  5623     0E62  0839               	movf	??___flmul+3,w
  5624     0E63  1103               	clrz
  5625     0E64  1803               	skipnc
  5626     0E65  3E01               	addlw	1
  5627     0E66  1903               	skipnz
  5628     0E67  2E69               	goto	u3563
  5629     0E68  07BF               	addwf	___flmul@grs+3,f
  5630     0E69                     u3563:
  5631     0E69                     l2502:
  5632     0E69  082F               	movf	___flmul@b+1,w
  5633     0E6A  00A0               	movwf	__Umul8_16@multiplicand
  5634     0E6B  0834               	movf	___flmul@a+2,w
  5635     0E6C  160A  158A  26C5  120A  158A  	fcall	__Umul8_16
  5636     0E71  1283               	bcf	3,5	;RP0=0, select bank0
  5637     0E72  1303               	bcf	3,6	;RP1=0, select bank0
  5638     0E73  0821               	movf	?__Umul8_16+1,w
  5639     0E74  00C7               	movwf	___flmul@temp+1
  5640     0E75  0820               	movf	?__Umul8_16,w
  5641     0E76  00C6               	movwf	___flmul@temp
  5642     0E77  0846               	movf	___flmul@temp,w
  5643     0E78  00B6               	movwf	??___flmul
  5644     0E79  0847               	movf	___flmul@temp+1,w
  5645     0E7A  00B7               	movwf	??___flmul+1
  5646     0E7B  01B8               	clrf	??___flmul+2
  5647     0E7C  01B9               	clrf	??___flmul+3
  5648     0E7D  0836               	movf	??___flmul,w
  5649     0E7E  07C2               	addwf	___flmul@prod,f
  5650     0E7F  0837               	movf	??___flmul+1,w
  5651     0E80  1103               	clrz
  5652     0E81  1803               	skipnc
  5653     0E82  3E01               	addlw	1
  5654     0E83  1903               	skipnz
  5655     0E84  2E86               	goto	u3571
  5656     0E85  07C3               	addwf	___flmul@prod+1,f
  5657     0E86                     u3571:
  5658     0E86  0838               	movf	??___flmul+2,w
  5659     0E87  1103               	clrz
  5660     0E88  1803               	skipnc
  5661     0E89  3E01               	addlw	1
  5662     0E8A  1903               	skipnz
  5663     0E8B  2E8D               	goto	u3572
  5664     0E8C  07C4               	addwf	___flmul@prod+2,f
  5665     0E8D                     u3572:
  5666     0E8D  0839               	movf	??___flmul+3,w
  5667     0E8E  1103               	clrz
  5668     0E8F  1803               	skipnc
  5669     0E90  3E01               	addlw	1
  5670     0E91  1903               	skipnz
  5671     0E92  2E94               	goto	u3573
  5672     0E93  07C5               	addwf	___flmul@prod+3,f
  5673     0E94                     u3573:
  5674     0E94                     l2504:
  5675     0E94  0830               	movf	___flmul@b+2,w
  5676     0E95  00A0               	movwf	__Umul8_16@multiplicand
  5677     0E96  0833               	movf	___flmul@a+1,w
  5678     0E97  160A  158A  26C5  120A  158A  	fcall	__Umul8_16
  5679     0E9C  1283               	bcf	3,5	;RP0=0, select bank0
  5680     0E9D  1303               	bcf	3,6	;RP1=0, select bank0
  5681     0E9E  0821               	movf	?__Umul8_16+1,w
  5682     0E9F  00C7               	movwf	___flmul@temp+1
  5683     0EA0  0820               	movf	?__Umul8_16,w
  5684     0EA1  00C6               	movwf	___flmul@temp
  5685     0EA2                     l2506:
  5686     0EA2  0846               	movf	___flmul@temp,w
  5687     0EA3  00B6               	movwf	??___flmul
  5688     0EA4  0847               	movf	___flmul@temp+1,w
  5689     0EA5  00B7               	movwf	??___flmul+1
  5690     0EA6  01B8               	clrf	??___flmul+2
  5691     0EA7  01B9               	clrf	??___flmul+3
  5692     0EA8  0836               	movf	??___flmul,w
  5693     0EA9  07C2               	addwf	___flmul@prod,f
  5694     0EAA  0837               	movf	??___flmul+1,w
  5695     0EAB  1103               	clrz
  5696     0EAC  1803               	skipnc
  5697     0EAD  3E01               	addlw	1
  5698     0EAE  1903               	skipnz
  5699     0EAF  2EB1               	goto	u3581
  5700     0EB0  07C3               	addwf	___flmul@prod+1,f
  5701     0EB1                     u3581:
  5702     0EB1  0838               	movf	??___flmul+2,w
  5703     0EB2  1103               	clrz
  5704     0EB3  1803               	skipnc
  5705     0EB4  3E01               	addlw	1
  5706     0EB5  1903               	skipnz
  5707     0EB6  2EB8               	goto	u3582
  5708     0EB7  07C4               	addwf	___flmul@prod+2,f
  5709     0EB8                     u3582:
  5710     0EB8  0839               	movf	??___flmul+3,w
  5711     0EB9  1103               	clrz
  5712     0EBA  1803               	skipnc
  5713     0EBB  3E01               	addlw	1
  5714     0EBC  1903               	skipnz
  5715     0EBD  2EBF               	goto	u3583
  5716     0EBE  07C5               	addwf	___flmul@prod+3,f
  5717     0EBF                     u3583:
  5718     0EBF  0830               	movf	___flmul@b+2,w
  5719     0EC0  00A0               	movwf	__Umul8_16@multiplicand
  5720     0EC1  0834               	movf	___flmul@a+2,w
  5721     0EC2  160A  158A  26C5  120A  158A  	fcall	__Umul8_16
  5722     0EC7  1283               	bcf	3,5	;RP0=0, select bank0
  5723     0EC8  1303               	bcf	3,6	;RP1=0, select bank0
  5724     0EC9  0821               	movf	?__Umul8_16+1,w
  5725     0ECA  00C7               	movwf	___flmul@temp+1
  5726     0ECB  0820               	movf	?__Umul8_16,w
  5727     0ECC  00C6               	movwf	___flmul@temp
  5728     0ECD                     l2508:
  5729     0ECD  0846               	movf	___flmul@temp,w
  5730     0ECE  00B6               	movwf	??___flmul
  5731     0ECF  0847               	movf	___flmul@temp+1,w
  5732     0ED0  00B7               	movwf	??___flmul+1
  5733     0ED1  01B8               	clrf	??___flmul+2
  5734     0ED2  01B9               	clrf	??___flmul+3
  5735     0ED3  3008               	movlw	8
  5736     0ED4                     u3595:
  5737     0ED4  1003               	clrc
  5738     0ED5  0DB6               	rlf	??___flmul,f
  5739     0ED6  0DB7               	rlf	??___flmul+1,f
  5740     0ED7  0DB8               	rlf	??___flmul+2,f
  5741     0ED8  0DB9               	rlf	??___flmul+3,f
  5742     0ED9                     u3590:
  5743     0ED9  3EFF               	addlw	-1
  5744     0EDA  1D03               	skipz
  5745     0EDB  2ED4               	goto	u3595
  5746     0EDC  0836               	movf	??___flmul,w
  5747     0EDD  07C2               	addwf	___flmul@prod,f
  5748     0EDE  0837               	movf	??___flmul+1,w
  5749     0EDF  1103               	clrz
  5750     0EE0  1803               	skipnc
  5751     0EE1  3E01               	addlw	1
  5752     0EE2  1903               	skipnz
  5753     0EE3  2EE5               	goto	u3601
  5754     0EE4  07C3               	addwf	___flmul@prod+1,f
  5755     0EE5                     u3601:
  5756     0EE5  0838               	movf	??___flmul+2,w
  5757     0EE6  1103               	clrz
  5758     0EE7  1803               	skipnc
  5759     0EE8  3E01               	addlw	1
  5760     0EE9  1903               	skipnz
  5761     0EEA  2EEC               	goto	u3602
  5762     0EEB  07C4               	addwf	___flmul@prod+2,f
  5763     0EEC                     u3602:
  5764     0EEC  0839               	movf	??___flmul+3,w
  5765     0EED  1103               	clrz
  5766     0EEE  1803               	skipnc
  5767     0EEF  3E01               	addlw	1
  5768     0EF0  1903               	skipnz
  5769     0EF1  2EF3               	goto	u3603
  5770     0EF2  07C5               	addwf	___flmul@prod+3,f
  5771     0EF3                     u3603:
  5772     0EF3                     l2510:
  5773     0EF3  083C               	movf	___flmul@grs,w
  5774     0EF4  00B6               	movwf	??___flmul
  5775     0EF5  083D               	movf	___flmul@grs+1,w
  5776     0EF6  00B7               	movwf	??___flmul+1
  5777     0EF7  083E               	movf	___flmul@grs+2,w
  5778     0EF8  00B8               	movwf	??___flmul+2
  5779     0EF9  083F               	movf	___flmul@grs+3,w
  5780     0EFA  00B9               	movwf	??___flmul+3
  5781     0EFB  3018               	movlw	24
  5782     0EFC                     u3615:
  5783     0EFC  1003               	clrc
  5784     0EFD  0CB9               	rrf	??___flmul+3,f
  5785     0EFE  0CB8               	rrf	??___flmul+2,f
  5786     0EFF  0CB7               	rrf	??___flmul+1,f
  5787     0F00  0CB6               	rrf	??___flmul,f
  5788     0F01                     u3610:
  5789     0F01  3EFF               	addlw	-1
  5790     0F02  1D03               	skipz
  5791     0F03  2EFC               	goto	u3615
  5792     0F04  0836               	movf	??___flmul,w
  5793     0F05  07C2               	addwf	___flmul@prod,f
  5794     0F06  0837               	movf	??___flmul+1,w
  5795     0F07  1103               	clrz
  5796     0F08  1803               	skipnc
  5797     0F09  3E01               	addlw	1
  5798     0F0A  1903               	skipnz
  5799     0F0B  2F0D               	goto	u3621
  5800     0F0C  07C3               	addwf	___flmul@prod+1,f
  5801     0F0D                     u3621:
  5802     0F0D  0838               	movf	??___flmul+2,w
  5803     0F0E  1103               	clrz
  5804     0F0F  1803               	skipnc
  5805     0F10  3E01               	addlw	1
  5806     0F11  1903               	skipnz
  5807     0F12  2F14               	goto	u3622
  5808     0F13  07C4               	addwf	___flmul@prod+2,f
  5809     0F14                     u3622:
  5810     0F14  0839               	movf	??___flmul+3,w
  5811     0F15  1103               	clrz
  5812     0F16  1803               	skipnc
  5813     0F17  3E01               	addlw	1
  5814     0F18  1903               	skipnz
  5815     0F19  2F1B               	goto	u3623
  5816     0F1A  07C5               	addwf	___flmul@prod+3,f
  5817     0F1B                     u3623:
  5818     0F1B                     l2512:
  5819     0F1B  3008               	movlw	8
  5820     0F1C  00B6               	movwf	??___flmul
  5821     0F1D                     u3635:
  5822     0F1D  1003               	clrc
  5823     0F1E  0DBC               	rlf	___flmul@grs,f
  5824     0F1F  0DBD               	rlf	___flmul@grs+1,f
  5825     0F20  0DBE               	rlf	___flmul@grs+2,f
  5826     0F21  0DBF               	rlf	___flmul@grs+3,f
  5827     0F22  0BB6               	decfsz	??___flmul,f
  5828     0F23  2F1D               	goto	u3635
  5829     0F24                     l2514:
  5830     0F24  0841               	movf	___flmul@bexp,w
  5831     0F25  0740               	addwf	___flmul@aexp,w
  5832     0F26  00B6               	movwf	??___flmul
  5833     0F27  01B7               	clrf	??___flmul+1
  5834     0F28  0DB7               	rlf	??___flmul+1,f
  5835     0F29  0836               	movf	??___flmul,w
  5836     0F2A  3E82               	addlw	130
  5837     0F2B  00C6               	movwf	___flmul@temp
  5838     0F2C  0837               	movf	??___flmul+1,w
  5839     0F2D  1803               	skipnc
  5840     0F2E  3E01               	addlw	1
  5841     0F2F  3EFF               	addlw	255
  5842     0F30  00C7               	movwf	___flmul@temp+1
  5843     0F31  2F4F               	goto	l2526
  5844     0F32                     l2516:
  5845     0F32  3001               	movlw	1
  5846     0F33  00B6               	movwf	??___flmul
  5847     0F34                     u3645:
  5848     0F34  1003               	clrc
  5849     0F35  0DC2               	rlf	___flmul@prod,f
  5850     0F36  0DC3               	rlf	___flmul@prod+1,f
  5851     0F37  0DC4               	rlf	___flmul@prod+2,f
  5852     0F38  0DC5               	rlf	___flmul@prod+3,f
  5853     0F39  0BB6               	decfsz	??___flmul,f
  5854     0F3A  2F34               	goto	u3645
  5855     0F3B                     l2518:
  5856     0F3B  1FBF               	btfss	___flmul@grs+3,7
  5857     0F3C  2F3E               	goto	u3651
  5858     0F3D  2F3F               	goto	u3650
  5859     0F3E                     u3651:
  5860     0F3E  2F40               	goto	l2522
  5861     0F3F                     u3650:
  5862     0F3F                     l2520:
  5863     0F3F  1442               	bsf	___flmul@prod,0
  5864     0F40                     l2522:
  5865     0F40  3001               	movlw	1
  5866     0F41  00B6               	movwf	??___flmul
  5867     0F42                     u3665:
  5868     0F42  1003               	clrc
  5869     0F43  0DBC               	rlf	___flmul@grs,f
  5870     0F44  0DBD               	rlf	___flmul@grs+1,f
  5871     0F45  0DBE               	rlf	___flmul@grs+2,f
  5872     0F46  0DBF               	rlf	___flmul@grs+3,f
  5873     0F47  0BB6               	decfsz	??___flmul,f
  5874     0F48  2F42               	goto	u3665
  5875     0F49                     l2524:
  5876     0F49  30FF               	movlw	255
  5877     0F4A  07C6               	addwf	___flmul@temp,f
  5878     0F4B  1803               	skipnc
  5879     0F4C  0AC7               	incf	___flmul@temp+1,f
  5880     0F4D  30FF               	movlw	255
  5881     0F4E  07C7               	addwf	___flmul@temp+1,f
  5882     0F4F                     l2526:
  5883     0F4F  1FC4               	btfss	___flmul@prod+2,7
  5884     0F50  2F52               	goto	u3671
  5885     0F51  2F53               	goto	u3670
  5886     0F52                     u3671:
  5887     0F52  2F32               	goto	l2516
  5888     0F53                     u3670:
  5889     0F53                     l2528:
  5890     0F53  01C0               	clrf	___flmul@aexp
  5891     0F54                     l2530:
  5892     0F54  1FBF               	btfss	___flmul@grs+3,7
  5893     0F55  2F57               	goto	u3681
  5894     0F56  2F58               	goto	u3680
  5895     0F57                     u3681:
  5896     0F57  2F74               	goto	l2538
  5897     0F58                     u3680:
  5898     0F58                     l2532:
  5899     0F58  30FF               	movlw	255
  5900     0F59  053C               	andwf	___flmul@grs,w
  5901     0F5A  00B6               	movwf	??___flmul
  5902     0F5B  30FF               	movlw	255
  5903     0F5C  053D               	andwf	___flmul@grs+1,w
  5904     0F5D  00B7               	movwf	??___flmul+1
  5905     0F5E  30FF               	movlw	255
  5906     0F5F  053E               	andwf	___flmul@grs+2,w
  5907     0F60  00B8               	movwf	??___flmul+2
  5908     0F61  307F               	movlw	127
  5909     0F62  053F               	andwf	___flmul@grs+3,w
  5910     0F63  00B9               	movwf	??___flmul+3
  5911     0F64  0839               	movf	??___flmul+3,w
  5912     0F65  0438               	iorwf	??___flmul+2,w
  5913     0F66  0437               	iorwf	??___flmul+1,w
  5914     0F67  0436               	iorwf	??___flmul,w
  5915     0F68  1903               	skipnz
  5916     0F69  2F6B               	goto	u3691
  5917     0F6A  2F6C               	goto	u3690
  5918     0F6B                     u3691:
  5919     0F6B  2F6F               	goto	l558
  5920     0F6C                     u3690:
  5921     0F6C                     l2534:
  5922     0F6C  01C0               	clrf	___flmul@aexp
  5923     0F6D  0AC0               	incf	___flmul@aexp,f
  5924     0F6E  2F74               	goto	l2538
  5925     0F6F                     l558:
  5926     0F6F  1C42               	btfss	___flmul@prod,0
  5927     0F70  2F72               	goto	u3701
  5928     0F71  2F73               	goto	u3700
  5929     0F72                     u3701:
  5930     0F72  2F74               	goto	l2538
  5931     0F73                     u3700:
  5932     0F73  2F6C               	goto	l2534
  5933     0F74                     l2538:
  5934     0F74  0840               	movf	___flmul@aexp,w
  5935     0F75  1903               	btfsc	3,2
  5936     0F76  2F78               	goto	u3711
  5937     0F77  2F79               	goto	u3710
  5938     0F78                     u3711:
  5939     0F78  2FAA               	goto	l2548
  5940     0F79                     u3710:
  5941     0F79                     l2540:
  5942     0F79  3001               	movlw	1
  5943     0F7A  07C2               	addwf	___flmul@prod,f
  5944     0F7B  3000               	movlw	0
  5945     0F7C  1803               	skipnc
  5946     0F7D  3001               	movlw	1
  5947     0F7E  07C3               	addwf	___flmul@prod+1,f
  5948     0F7F  3000               	movlw	0
  5949     0F80  1803               	skipnc
  5950     0F81  3001               	movlw	1
  5951     0F82  07C4               	addwf	___flmul@prod+2,f
  5952     0F83  3000               	movlw	0
  5953     0F84  1803               	skipnc
  5954     0F85  3001               	movlw	1
  5955     0F86  07C5               	addwf	___flmul@prod+3,f
  5956     0F87                     l2542:
  5957     0F87  1C45               	btfss	___flmul@prod+3,0
  5958     0F88  2F8A               	goto	u3721
  5959     0F89  2F8B               	goto	u3720
  5960     0F8A                     u3721:
  5961     0F8A  2FAA               	goto	l2548
  5962     0F8B                     u3720:
  5963     0F8B                     l2544:
  5964     0F8B  0842               	movf	___flmul@prod,w
  5965     0F8C  00B6               	movwf	??___flmul
  5966     0F8D  0843               	movf	___flmul@prod+1,w
  5967     0F8E  00B7               	movwf	??___flmul+1
  5968     0F8F  0844               	movf	___flmul@prod+2,w
  5969     0F90  00B8               	movwf	??___flmul+2
  5970     0F91  0845               	movf	___flmul@prod+3,w
  5971     0F92  00B9               	movwf	??___flmul+3
  5972     0F93  3001               	movlw	1
  5973     0F94  00BA               	movwf	??___flmul+4
  5974     0F95                     u3735:
  5975     0F95  0D39               	rlf	??___flmul+3,w
  5976     0F96  0CB9               	rrf	??___flmul+3,f
  5977     0F97  0CB8               	rrf	??___flmul+2,f
  5978     0F98  0CB7               	rrf	??___flmul+1,f
  5979     0F99  0CB6               	rrf	??___flmul,f
  5980     0F9A                     u3730:
  5981     0F9A  0BBA               	decfsz	??___flmul+4,f
  5982     0F9B  2F95               	goto	u3735
  5983     0F9C  0839               	movf	??___flmul+3,w
  5984     0F9D  00C5               	movwf	___flmul@prod+3
  5985     0F9E  0838               	movf	??___flmul+2,w
  5986     0F9F  00C4               	movwf	___flmul@prod+2
  5987     0FA0  0837               	movf	??___flmul+1,w
  5988     0FA1  00C3               	movwf	___flmul@prod+1
  5989     0FA2  0836               	movf	??___flmul,w
  5990     0FA3  00C2               	movwf	___flmul@prod
  5991     0FA4                     l2546:
  5992     0FA4  3001               	movlw	1
  5993     0FA5  07C6               	addwf	___flmul@temp,f
  5994     0FA6  1803               	skipnc
  5995     0FA7  0AC7               	incf	___flmul@temp+1,f
  5996     0FA8  3000               	movlw	0
  5997     0FA9  07C7               	addwf	___flmul@temp+1,f
  5998     0FAA                     l2548:
  5999     0FAA  0847               	movf	___flmul@temp+1,w
  6000     0FAB  3A80               	xorlw	128
  6001     0FAC  00FF               	movwf	btemp+1
  6002     0FAD  3080               	movlw	128
  6003     0FAE  027F               	subwf	btemp+1,w
  6004     0FAF  1D03               	skipz
  6005     0FB0  2FB3               	goto	u3745
  6006     0FB1  30FF               	movlw	255
  6007     0FB2  0246               	subwf	___flmul@temp,w
  6008     0FB3                     u3745:
  6009     0FB3  1C03               	skipc
  6010     0FB4  2FB6               	goto	u3741
  6011     0FB5  2FB7               	goto	u3740
  6012     0FB6                     u3741:
  6013     0FB6  2FC2               	goto	l2552
  6014     0FB7                     u3740:
  6015     0FB7                     l2550:
  6016     0FB7  307F               	movlw	127
  6017     0FB8  1283               	bcf	3,5	;RP0=0, select bank0
  6018     0FB9  1303               	bcf	3,6	;RP1=0, select bank0
  6019     0FBA  00C5               	movwf	___flmul@prod+3
  6020     0FBB  3080               	movlw	128
  6021     0FBC  00C4               	movwf	___flmul@prod+2
  6022     0FBD  3000               	movlw	0
  6023     0FBE  00C3               	movwf	___flmul@prod+1
  6024     0FBF  3000               	movlw	0
  6025     0FC0  00C2               	movwf	___flmul@prod
  6026     0FC1  2FF3               	goto	l2566
  6027     0FC2                     l2552:
  6028     0FC2  1283               	bcf	3,5	;RP0=0, select bank0
  6029     0FC3  1303               	bcf	3,6	;RP1=0, select bank0
  6030     0FC4  0847               	movf	___flmul@temp+1,w
  6031     0FC5  3A80               	xorlw	128
  6032     0FC6  00FF               	movwf	btemp+1
  6033     0FC7  3080               	movlw	128
  6034     0FC8  027F               	subwf	btemp+1,w
  6035     0FC9  1D03               	skipz
  6036     0FCA  2FCD               	goto	u3755
  6037     0FCB  3001               	movlw	1
  6038     0FCC  0246               	subwf	___flmul@temp,w
  6039     0FCD                     u3755:
  6040     0FCD  1803               	skipnc
  6041     0FCE  2FD0               	goto	u3751
  6042     0FCF  2FD1               	goto	u3750
  6043     0FD0                     u3751:
  6044     0FD0  2FDD               	goto	l2558
  6045     0FD1                     u3750:
  6046     0FD1                     l2554:
  6047     0FD1  3000               	movlw	0
  6048     0FD2  1283               	bcf	3,5	;RP0=0, select bank0
  6049     0FD3  1303               	bcf	3,6	;RP1=0, select bank0
  6050     0FD4  00C5               	movwf	___flmul@prod+3
  6051     0FD5  3000               	movlw	0
  6052     0FD6  00C4               	movwf	___flmul@prod+2
  6053     0FD7  3000               	movlw	0
  6054     0FD8  00C3               	movwf	___flmul@prod+1
  6055     0FD9  3000               	movlw	0
  6056     0FDA  00C2               	movwf	___flmul@prod
  6057     0FDB                     l2556:
  6058     0FDB  01BB               	clrf	___flmul@sign
  6059     0FDC  2FF3               	goto	l2566
  6060     0FDD                     l2558:
  6061     0FDD  1283               	bcf	3,5	;RP0=0, select bank0
  6062     0FDE  1303               	bcf	3,6	;RP1=0, select bank0
  6063     0FDF  0846               	movf	___flmul@temp,w
  6064     0FE0  00C1               	movwf	___flmul@bexp
  6065     0FE1  30FF               	movlw	255
  6066     0FE2  05C2               	andwf	___flmul@prod,f
  6067     0FE3  30FF               	movlw	255
  6068     0FE4  05C3               	andwf	___flmul@prod+1,f
  6069     0FE5  307F               	movlw	127
  6070     0FE6  05C4               	andwf	___flmul@prod+2,f
  6071     0FE7  3000               	movlw	0
  6072     0FE8  05C5               	andwf	___flmul@prod+3,f
  6073     0FE9                     l2560:
  6074     0FE9  1C41               	btfss	___flmul@bexp,0
  6075     0FEA  2FEC               	goto	u3761
  6076     0FEB  2FED               	goto	u3760
  6077     0FEC                     u3761:
  6078     0FEC  2FEE               	goto	l2564
  6079     0FED                     u3760:
  6080     0FED                     l2562:
  6081     0FED  17C4               	bsf	___flmul@prod+2,7
  6082     0FEE                     l2564:
  6083     0FEE  0841               	movf	___flmul@bexp,w
  6084     0FEF  00B6               	movwf	??___flmul
  6085     0FF0  1003               	clrc
  6086     0FF1  0C36               	rrf	??___flmul,w
  6087     0FF2  00C5               	movwf	___flmul@prod+3
  6088     0FF3                     l2566:
  6089     0FF3  083B               	movf	___flmul@sign,w
  6090     0FF4  00FF               	movwf	btemp+1
  6091     0FF5  087F               	movf	btemp+1,w
  6092     0FF6  04C5               	iorwf	___flmul@prod+3,f
  6093     0FF7                     l2568:
  6094     0FF7  0845               	movf	___flmul@prod+3,w
  6095     0FF8  00B1               	movwf	?___flmul+3
  6096     0FF9  0844               	movf	___flmul@prod+2,w
  6097     0FFA  00B0               	movwf	?___flmul+2
  6098     0FFB  0843               	movf	___flmul@prod+1,w
  6099     0FFC  00AF               	movwf	?___flmul+1
  6100     0FFD  0842               	movf	___flmul@prod,w
  6101     0FFE  00AE               	movwf	?___flmul
  6102     0FFF                     l552:
  6103     0FFF  0008               	return
  6104     1000                     __end_of___flmul:
  6105                           
  6106                           	psect	text21
  6107     1EC5                     __ptext21:	
  6108 ;; *************** function __Umul8_16 *****************
  6109 ;; Defined at:
  6110 ;;		line 4 in file "C:\Program Files\Microchip\xc8\v2.46\pic\sources\c99\common\Umul8_16.c"
  6111 ;; Parameters:    Size  Location     Type
  6112 ;;  multiplier      1    wreg     unsigned char 
  6113 ;;  multiplicand    1    0[BANK0 ] unsigned char 
  6114 ;; Auto vars:     Size  Location     Type
  6115 ;;  multiplier      1    8[BANK0 ] unsigned char 
  6116 ;;  word_mpld       2    6[BANK0 ] unsigned short 
  6117 ;;  product         2    4[BANK0 ] unsigned short 
  6118 ;; Return value:  Size  Location     Type
  6119 ;;                  2    0[BANK0 ] unsigned int 
  6120 ;; Registers used:
  6121 ;;		wreg, status,2, status,0
  6122 ;; Tracked objects:
  6123 ;;		On entry : 0/0
  6124 ;;		On exit  : 0/0
  6125 ;;		Unchanged: 0/0
  6126 ;; Data sizes:     COMMON   BANK0   BANK1   BANK3   BANK2
  6127 ;;      Params:         0       2       0       0       0
  6128 ;;      Locals:         0       5       0       0       0
  6129 ;;      Temps:          0       2       0       0       0
  6130 ;;      Totals:         0       9       0       0       0
  6131 ;;Total ram usage:        9 bytes
  6132 ;; Hardware stack levels used: 1
  6133 ;; Hardware stack levels required when called: 3
  6134 ;; This function calls:
  6135 ;;		Nothing
  6136 ;; This function is called by:
  6137 ;;		___flmul
  6138 ;; This function uses a non-reentrant model
  6139 ;;
  6140                           
  6141     1EC5                     __Umul8_16:	
  6142                           ;psect for function __Umul8_16
  6143                           
  6144                           
  6145                           ;incstack = 0
  6146 ;; hardware stack exceeded
  6147                           ; Regs used in __Umul8_16: [wreg+status,2+status,0]
  6148                           ;__Umul8_16@multiplier stored from wreg
  6149     1EC5  1283               	bcf	3,5	;RP0=0, select bank0
  6150     1EC6  1303               	bcf	3,6	;RP1=0, select bank0
  6151     1EC7  00A8               	movwf	__Umul8_16@multiplier
  6152     1EC8                     l2164:
  6153     1EC8  01A4               	clrf	__Umul8_16@product
  6154     1EC9  01A5               	clrf	__Umul8_16@product+1
  6155     1ECA                     l2166:
  6156     1ECA  0820               	movf	__Umul8_16@multiplicand,w
  6157     1ECB  00A2               	movwf	??__Umul8_16
  6158     1ECC  01A3               	clrf	??__Umul8_16+1
  6159     1ECD  0822               	movf	??__Umul8_16,w
  6160     1ECE  00A6               	movwf	__Umul8_16@word_mpld
  6161     1ECF  0823               	movf	??__Umul8_16+1,w
  6162     1ED0  00A7               	movwf	__Umul8_16@word_mpld+1
  6163     1ED1                     l2168:
  6164     1ED1  1C28               	btfss	__Umul8_16@multiplier,0
  6165     1ED2  2ED4               	goto	u2821
  6166     1ED3  2ED5               	goto	u2820
  6167     1ED4                     u2821:
  6168     1ED4  2EDB               	goto	l571
  6169     1ED5                     u2820:
  6170     1ED5                     l2170:
  6171     1ED5  0826               	movf	__Umul8_16@word_mpld,w
  6172     1ED6  07A4               	addwf	__Umul8_16@product,f
  6173     1ED7  1803               	skipnc
  6174     1ED8  0AA5               	incf	__Umul8_16@product+1,f
  6175     1ED9  0827               	movf	__Umul8_16@word_mpld+1,w
  6176     1EDA  07A5               	addwf	__Umul8_16@product+1,f
  6177     1EDB                     l571:
  6178     1EDB  3001               	movlw	1
  6179     1EDC                     u2835:
  6180     1EDC  1003               	clrc
  6181     1EDD  0DA6               	rlf	__Umul8_16@word_mpld,f
  6182     1EDE  0DA7               	rlf	__Umul8_16@word_mpld+1,f
  6183     1EDF  3EFF               	addlw	-1
  6184     1EE0  1D03               	skipz
  6185     1EE1  2EDC               	goto	u2835
  6186     1EE2  1003               	clrc
  6187     1EE3  0CA8               	rrf	__Umul8_16@multiplier,f
  6188     1EE4                     l2172:
  6189     1EE4  0828               	movf	__Umul8_16@multiplier,w
  6190     1EE5  1D03               	btfss	3,2
  6191     1EE6  2EE8               	goto	u2841
  6192     1EE7  2EE9               	goto	u2840
  6193     1EE8                     u2841:
  6194     1EE8  2ED1               	goto	l2168
  6195     1EE9                     u2840:
  6196     1EE9                     l2174:
  6197     1EE9  0825               	movf	__Umul8_16@product+1,w
  6198     1EEA  00A1               	movwf	?__Umul8_16+1
  6199     1EEB  0824               	movf	__Umul8_16@product,w
  6200     1EEC  00A0               	movwf	?__Umul8_16
  6201     1EED                     l573:
  6202     1EED  0008               	return
  6203     1EEE                     __end_of__Umul8_16:
  6204                           
  6205                           	psect	text22
  6206     1124                     __ptext22:	
  6207 ;; *************** function ___flge *****************
  6208 ;; Defined at:
  6209 ;;		line 4 in file "C:\Program Files\Microchip\xc8\v2.46\pic\sources\c99\common\flge.c"
  6210 ;; Parameters:    Size  Location     Type
  6211 ;;  ff1             4   40[BANK0 ] unsigned int 
  6212 ;;  ff2             4   44[BANK0 ] unsigned int 
  6213 ;; Auto vars:     Size  Location     Type
  6214 ;;		None
  6215 ;; Return value:  Size  Location     Type
  6216 ;;		None               void
  6217 ;; Registers used:
  6218 ;;		wreg, status,2, status,0
  6219 ;; Tracked objects:
  6220 ;;		On entry : 0/0
  6221 ;;		On exit  : 0/0
  6222 ;;		Unchanged: 0/0
  6223 ;; Data sizes:     COMMON   BANK0   BANK1   BANK3   BANK2
  6224 ;;      Params:         0       8       0       0       0
  6225 ;;      Locals:         0       0       0       0       0
  6226 ;;      Temps:          0       4       0       0       0
  6227 ;;      Totals:         0      12       0       0       0
  6228 ;;Total ram usage:       12 bytes
  6229 ;; Hardware stack levels used: 1
  6230 ;; Hardware stack levels required when called: 3
  6231 ;; This function calls:
  6232 ;;		Nothing
  6233 ;; This function is called by:
  6234 ;;		_efgtoa
  6235 ;; This function uses a non-reentrant model
  6236 ;;
  6237                           
  6238     1124                     ___flge:	
  6239                           ;psect for function ___flge
  6240                           
  6241     1124                     l2212:	
  6242                           ;incstack = 0
  6243                           ; Regs used in ___flge: [wreg+status,2+status,0]
  6244                           
  6245     1124  3000               	movlw	0
  6246     1125  1283               	bcf	3,5	;RP0=0, select bank0
  6247     1126  1303               	bcf	3,6	;RP1=0, select bank0
  6248     1127  0548               	andwf	___flge@ff1,w
  6249     1128  00D0               	movwf	??___flge
  6250     1129  3000               	movlw	0
  6251     112A  0549               	andwf	___flge@ff1+1,w
  6252     112B  00D1               	movwf	??___flge+1
  6253     112C  3080               	movlw	128
  6254     112D  054A               	andwf	___flge@ff1+2,w
  6255     112E  00D2               	movwf	??___flge+2
  6256     112F  307F               	movlw	127
  6257     1130  054B               	andwf	___flge@ff1+3,w
  6258     1131  00D3               	movwf	??___flge+3
  6259     1132  0853               	movf	??___flge+3,w
  6260     1133  0452               	iorwf	??___flge+2,w
  6261     1134  0451               	iorwf	??___flge+1,w
  6262     1135  0450               	iorwf	??___flge,w
  6263     1136  1D03               	skipz
  6264     1137  2939               	goto	u2931
  6265     1138  293A               	goto	u2930
  6266     1139                     u2931:
  6267     1139  2942               	goto	l333
  6268     113A                     u2930:
  6269     113A                     l2214:
  6270     113A  3000               	movlw	0
  6271     113B  00CB               	movwf	___flge@ff1+3
  6272     113C  3000               	movlw	0
  6273     113D  00CA               	movwf	___flge@ff1+2
  6274     113E  3000               	movlw	0
  6275     113F  00C9               	movwf	___flge@ff1+1
  6276     1140  3000               	movlw	0
  6277     1141  00C8               	movwf	___flge@ff1
  6278     1142                     l333:
  6279     1142  3000               	movlw	0
  6280     1143  054C               	andwf	___flge@ff2,w
  6281     1144  00D0               	movwf	??___flge
  6282     1145  3000               	movlw	0
  6283     1146  054D               	andwf	___flge@ff2+1,w
  6284     1147  00D1               	movwf	??___flge+1
  6285     1148  3080               	movlw	128
  6286     1149  054E               	andwf	___flge@ff2+2,w
  6287     114A  00D2               	movwf	??___flge+2
  6288     114B  307F               	movlw	127
  6289     114C  054F               	andwf	___flge@ff2+3,w
  6290     114D  00D3               	movwf	??___flge+3
  6291     114E  0853               	movf	??___flge+3,w
  6292     114F  0452               	iorwf	??___flge+2,w
  6293     1150  0451               	iorwf	??___flge+1,w
  6294     1151  0450               	iorwf	??___flge,w
  6295     1152  1D03               	skipz
  6296     1153  2955               	goto	u2941
  6297     1154  2956               	goto	u2940
  6298     1155                     u2941:
  6299     1155  295E               	goto	l2218
  6300     1156                     u2940:
  6301     1156                     l2216:
  6302     1156  3000               	movlw	0
  6303     1157  00CF               	movwf	___flge@ff2+3
  6304     1158  3000               	movlw	0
  6305     1159  00CE               	movwf	___flge@ff2+2
  6306     115A  3000               	movlw	0
  6307     115B  00CD               	movwf	___flge@ff2+1
  6308     115C  3000               	movlw	0
  6309     115D  00CC               	movwf	___flge@ff2
  6310     115E                     l2218:
  6311     115E  1FCB               	btfss	___flge@ff1+3,7
  6312     115F  2961               	goto	u2951
  6313     1160  2962               	goto	u2950
  6314     1161                     u2951:
  6315     1161  2986               	goto	l2222
  6316     1162                     u2950:
  6317     1162                     l2220:
  6318     1162  3000               	movlw	0
  6319     1163  00D0               	movwf	??___flge
  6320     1164  3000               	movlw	0
  6321     1165  00D1               	movwf	??___flge+1
  6322     1166  3000               	movlw	0
  6323     1167  00D2               	movwf	??___flge+2
  6324     1168  3080               	movlw	128
  6325     1169  00D3               	movwf	??___flge+3
  6326     116A  0848               	movf	___flge@ff1,w
  6327     116B  02D0               	subwf	??___flge,f
  6328     116C  0849               	movf	___flge@ff1+1,w
  6329     116D  1C03               	skipc
  6330     116E  0F49               	incfsz	___flge@ff1+1,w
  6331     116F  2971               	goto	u2961
  6332     1170  2972               	goto	u2962
  6333     1171                     u2961:
  6334     1171  02D1               	subwf	??___flge+1,f
  6335     1172                     u2962:
  6336     1172  084A               	movf	___flge@ff1+2,w
  6337     1173  1C03               	skipc
  6338     1174  0F4A               	incfsz	___flge@ff1+2,w
  6339     1175  2977               	goto	u2963
  6340     1176  2978               	goto	u2964
  6341     1177                     u2963:
  6342     1177  02D2               	subwf	??___flge+2,f
  6343     1178                     u2964:
  6344     1178  084B               	movf	___flge@ff1+3,w
  6345     1179  1C03               	skipc
  6346     117A  0F4B               	incfsz	___flge@ff1+3,w
  6347     117B  297D               	goto	u2965
  6348     117C  297E               	goto	u2966
  6349     117D                     u2965:
  6350     117D  02D3               	subwf	??___flge+3,f
  6351     117E                     u2966:
  6352     117E  0853               	movf	??___flge+3,w
  6353     117F  00CB               	movwf	___flge@ff1+3
  6354     1180  0852               	movf	??___flge+2,w
  6355     1181  00CA               	movwf	___flge@ff1+2
  6356     1182  0851               	movf	??___flge+1,w
  6357     1183  00C9               	movwf	___flge@ff1+1
  6358     1184  0850               	movf	??___flge,w
  6359     1185  00C8               	movwf	___flge@ff1
  6360     1186                     l2222:
  6361     1186  1FCF               	btfss	___flge@ff2+3,7
  6362     1187  2989               	goto	u2971
  6363     1188  298A               	goto	u2970
  6364     1189                     u2971:
  6365     1189  29AE               	goto	l336
  6366     118A                     u2970:
  6367     118A                     l2224:
  6368     118A  3000               	movlw	0
  6369     118B  00D0               	movwf	??___flge
  6370     118C  3000               	movlw	0
  6371     118D  00D1               	movwf	??___flge+1
  6372     118E  3000               	movlw	0
  6373     118F  00D2               	movwf	??___flge+2
  6374     1190  3080               	movlw	128
  6375     1191  00D3               	movwf	??___flge+3
  6376     1192  084C               	movf	___flge@ff2,w
  6377     1193  02D0               	subwf	??___flge,f
  6378     1194  084D               	movf	___flge@ff2+1,w
  6379     1195  1C03               	skipc
  6380     1196  0F4D               	incfsz	___flge@ff2+1,w
  6381     1197  2999               	goto	u2981
  6382     1198  299A               	goto	u2982
  6383     1199                     u2981:
  6384     1199  02D1               	subwf	??___flge+1,f
  6385     119A                     u2982:
  6386     119A  084E               	movf	___flge@ff2+2,w
  6387     119B  1C03               	skipc
  6388     119C  0F4E               	incfsz	___flge@ff2+2,w
  6389     119D  299F               	goto	u2983
  6390     119E  29A0               	goto	u2984
  6391     119F                     u2983:
  6392     119F  02D2               	subwf	??___flge+2,f
  6393     11A0                     u2984:
  6394     11A0  084F               	movf	___flge@ff2+3,w
  6395     11A1  1C03               	skipc
  6396     11A2  0F4F               	incfsz	___flge@ff2+3,w
  6397     11A3  29A5               	goto	u2985
  6398     11A4  29A6               	goto	u2986
  6399     11A5                     u2985:
  6400     11A5  02D3               	subwf	??___flge+3,f
  6401     11A6                     u2986:
  6402     11A6  0853               	movf	??___flge+3,w
  6403     11A7  00CF               	movwf	___flge@ff2+3
  6404     11A8  0852               	movf	??___flge+2,w
  6405     11A9  00CE               	movwf	___flge@ff2+2
  6406     11AA  0851               	movf	??___flge+1,w
  6407     11AB  00CD               	movwf	___flge@ff2+1
  6408     11AC  0850               	movf	??___flge,w
  6409     11AD  00CC               	movwf	___flge@ff2
  6410     11AE                     l336:
  6411     11AE  3080               	movlw	128
  6412     11AF  06CB               	xorwf	___flge@ff1+3,f
  6413     11B0  3080               	movlw	128
  6414     11B1  06CF               	xorwf	___flge@ff2+3,f
  6415     11B2  084F               	movf	___flge@ff2+3,w
  6416     11B3  024B               	subwf	___flge@ff1+3,w
  6417     11B4  1D03               	skipz
  6418     11B5  29C0               	goto	u2995
  6419     11B6  084E               	movf	___flge@ff2+2,w
  6420     11B7  024A               	subwf	___flge@ff1+2,w
  6421     11B8  1D03               	skipz
  6422     11B9  29C0               	goto	u2995
  6423     11BA  084D               	movf	___flge@ff2+1,w
  6424     11BB  0249               	subwf	___flge@ff1+1,w
  6425     11BC  1D03               	skipz
  6426     11BD  29C0               	goto	u2995
  6427     11BE  084C               	movf	___flge@ff2,w
  6428     11BF  0248               	subwf	___flge@ff1,w
  6429     11C0                     u2995:
  6430     11C0  1803               	skipnc
  6431     11C1  29C3               	goto	u2991
  6432     11C2  29C4               	goto	u2990
  6433     11C3                     u2991:
  6434     11C3  29C6               	goto	l2228
  6435     11C4                     u2990:
  6436     11C4                     l2226:
  6437     11C4  1003               	clrc
  6438     11C5  29C7               	goto	l341
  6439     11C6                     l2228:
  6440     11C6  1403               	setc
  6441     11C7                     l341:
  6442     11C7  0008               	return
  6443     11C8                     __end_of___flge:
  6444                           
  6445                           	psect	text23
  6446     07A8                     __ptext23:	
  6447 ;; *************** function ___fleq *****************
  6448 ;; Defined at:
  6449 ;;		line 4 in file "C:\Program Files\Microchip\xc8\v2.46\pic\sources\c99\common\fleq.c"
  6450 ;; Parameters:    Size  Location     Type
  6451 ;;  ff1             4    0[BANK0 ] unsigned int 
  6452 ;;  ff2             4    4[BANK0 ] unsigned int 
  6453 ;; Auto vars:     Size  Location     Type
  6454 ;;		None
  6455 ;; Return value:  Size  Location     Type
  6456 ;;		None               void
  6457 ;; Registers used:
  6458 ;;		wreg, status,2, status,0
  6459 ;; Tracked objects:
  6460 ;;		On entry : 0/0
  6461 ;;		On exit  : 0/0
  6462 ;;		Unchanged: 0/0
  6463 ;; Data sizes:     COMMON   BANK0   BANK1   BANK3   BANK2
  6464 ;;      Params:         0       8       0       0       0
  6465 ;;      Locals:         0       0       0       0       0
  6466 ;;      Temps:          0       4       0       0       0
  6467 ;;      Totals:         0      12       0       0       0
  6468 ;;Total ram usage:       12 bytes
  6469 ;; Hardware stack levels used: 1
  6470 ;; Hardware stack levels required when called: 3
  6471 ;; This function calls:
  6472 ;;		Nothing
  6473 ;; This function is called by:
  6474 ;;		_efgtoa
  6475 ;; This function uses a non-reentrant model
  6476 ;;
  6477                           
  6478     07A8                     ___fleq:	
  6479                           ;psect for function ___fleq
  6480                           
  6481     07A8                     l2200:	
  6482                           ;incstack = 0
  6483                           ; Regs used in ___fleq: [wreg+status,2+status,0]
  6484                           
  6485     07A8  3000               	movlw	0
  6486     07A9  1283               	bcf	3,5	;RP0=0, select bank0
  6487     07AA  1303               	bcf	3,6	;RP1=0, select bank0
  6488     07AB  0520               	andwf	___fleq@ff1,w
  6489     07AC  00A8               	movwf	??___fleq
  6490     07AD  3000               	movlw	0
  6491     07AE  0521               	andwf	___fleq@ff1+1,w
  6492     07AF  00A9               	movwf	??___fleq+1
  6493     07B0  3080               	movlw	128
  6494     07B1  0522               	andwf	___fleq@ff1+2,w
  6495     07B2  00AA               	movwf	??___fleq+2
  6496     07B3  307F               	movlw	127
  6497     07B4  0523               	andwf	___fleq@ff1+3,w
  6498     07B5  00AB               	movwf	??___fleq+3
  6499     07B6  082B               	movf	??___fleq+3,w
  6500     07B7  042A               	iorwf	??___fleq+2,w
  6501     07B8  0429               	iorwf	??___fleq+1,w
  6502     07B9  0428               	iorwf	??___fleq,w
  6503     07BA  1D03               	skipz
  6504     07BB  2FBD               	goto	u2901
  6505     07BC  2FBE               	goto	u2900
  6506     07BD                     u2901:
  6507     07BD  2FC6               	goto	l324
  6508     07BE                     u2900:
  6509     07BE                     l2202:
  6510     07BE  3000               	movlw	0
  6511     07BF  00A3               	movwf	___fleq@ff1+3
  6512     07C0  3000               	movlw	0
  6513     07C1  00A2               	movwf	___fleq@ff1+2
  6514     07C2  3000               	movlw	0
  6515     07C3  00A1               	movwf	___fleq@ff1+1
  6516     07C4  3000               	movlw	0
  6517     07C5  00A0               	movwf	___fleq@ff1
  6518     07C6                     l324:
  6519     07C6  3000               	movlw	0
  6520     07C7  0524               	andwf	___fleq@ff2,w
  6521     07C8  00A8               	movwf	??___fleq
  6522     07C9  3000               	movlw	0
  6523     07CA  0525               	andwf	___fleq@ff2+1,w
  6524     07CB  00A9               	movwf	??___fleq+1
  6525     07CC  3080               	movlw	128
  6526     07CD  0526               	andwf	___fleq@ff2+2,w
  6527     07CE  00AA               	movwf	??___fleq+2
  6528     07CF  307F               	movlw	127
  6529     07D0  0527               	andwf	___fleq@ff2+3,w
  6530     07D1  00AB               	movwf	??___fleq+3
  6531     07D2  082B               	movf	??___fleq+3,w
  6532     07D3  042A               	iorwf	??___fleq+2,w
  6533     07D4  0429               	iorwf	??___fleq+1,w
  6534     07D5  0428               	iorwf	??___fleq,w
  6535     07D6  1D03               	skipz
  6536     07D7  2FD9               	goto	u2911
  6537     07D8  2FDA               	goto	u2910
  6538     07D9                     u2911:
  6539     07D9  2FE2               	goto	l325
  6540     07DA                     u2910:
  6541     07DA                     l2204:
  6542     07DA  3000               	movlw	0
  6543     07DB  00A7               	movwf	___fleq@ff2+3
  6544     07DC  3000               	movlw	0
  6545     07DD  00A6               	movwf	___fleq@ff2+2
  6546     07DE  3000               	movlw	0
  6547     07DF  00A5               	movwf	___fleq@ff2+1
  6548     07E0  3000               	movlw	0
  6549     07E1  00A4               	movwf	___fleq@ff2
  6550     07E2                     l325:
  6551     07E2  0827               	movf	___fleq@ff2+3,w
  6552     07E3  0623               	xorwf	___fleq@ff1+3,w
  6553     07E4  1D03               	skipz
  6554     07E5  2FF0               	goto	u2925
  6555     07E6  0826               	movf	___fleq@ff2+2,w
  6556     07E7  0622               	xorwf	___fleq@ff1+2,w
  6557     07E8  1D03               	skipz
  6558     07E9  2FF0               	goto	u2925
  6559     07EA  0825               	movf	___fleq@ff2+1,w
  6560     07EB  0621               	xorwf	___fleq@ff1+1,w
  6561     07EC  1D03               	skipz
  6562     07ED  2FF0               	goto	u2925
  6563     07EE  0824               	movf	___fleq@ff2,w
  6564     07EF  0620               	xorwf	___fleq@ff1,w
  6565     07F0                     u2925:
  6566     07F0  1903               	skipnz
  6567     07F1  2FF3               	goto	u2921
  6568     07F2  2FF4               	goto	u2920
  6569     07F3                     u2921:
  6570     07F3  2FF6               	goto	l2208
  6571     07F4                     u2920:
  6572     07F4                     l2206:
  6573     07F4  1003               	clrc
  6574     07F5  2FF7               	goto	l330
  6575     07F6                     l2208:
  6576     07F6  1403               	setc
  6577     07F7                     l330:
  6578     07F7  0008               	return
  6579     07F8                     __end_of___fleq:
  6580                           
  6581                           	psect	text24
  6582     05D9                     __ptext24:	
  6583 ;; *************** function ___fldiv *****************
  6584 ;; Defined at:
  6585 ;;		line 8 in file "C:\Program Files\Microchip\xc8\v2.46\pic\sources\c99\common\sprcdiv.c"
  6586 ;; Parameters:    Size  Location     Type
  6587 ;;  a               4   40[BANK0 ] unsigned int 
  6588 ;;  b               4   44[BANK0 ] unsigned int 
  6589 ;; Auto vars:     Size  Location     Type
  6590 ;;  grs             4   60[BANK0 ] unsigned long 
  6591 ;;  rem             4   53[BANK0 ] unsigned long 
  6592 ;;  new_exp         2   58[BANK0 ] short 
  6593 ;;  aexp            1   65[BANK0 ] unsigned char 
  6594 ;;  bexp            1   64[BANK0 ] unsigned char 
  6595 ;;  sign            1   57[BANK0 ] unsigned char 
  6596 ;; Return value:  Size  Location     Type
  6597 ;;                  4   40[BANK0 ] unsigned char 
  6598 ;; Registers used:
  6599 ;;		wreg, status,2, status,0, btemp+1
  6600 ;; Tracked objects:
  6601 ;;		On entry : 0/0
  6602 ;;		On exit  : 0/0
  6603 ;;		Unchanged: 0/0
  6604 ;; Data sizes:     COMMON   BANK0   BANK1   BANK3   BANK2
  6605 ;;      Params:         0       8       0       0       0
  6606 ;;      Locals:         0      13       0       0       0
  6607 ;;      Temps:          0       5       0       0       0
  6608 ;;      Totals:         0      26       0       0       0
  6609 ;;Total ram usage:       26 bytes
  6610 ;; Hardware stack levels used: 1
  6611 ;; Hardware stack levels required when called: 3
  6612 ;; This function calls:
  6613 ;;		Nothing
  6614 ;; This function is called by:
  6615 ;;		_main
  6616 ;;		_efgtoa
  6617 ;; This function uses a non-reentrant model
  6618 ;;
  6619                           
  6620     05D9                     ___fldiv:	
  6621                           ;psect for function ___fldiv
  6622                           
  6623     05D9                     l2284:	
  6624                           ;incstack = 0
  6625                           ; Regs used in ___fldiv: [wreg+status,2+status,0+btemp+1]
  6626                           
  6627     05D9  1283               	bcf	3,5	;RP0=0, select bank0
  6628     05DA  1303               	bcf	3,6	;RP1=0, select bank0
  6629     05DB  084F               	movf	___fldiv@b+3,w
  6630     05DC  3980               	andlw	128
  6631     05DD  00D9               	movwf	___fldiv@sign
  6632     05DE                     l2286:
  6633     05DE  084F               	movf	___fldiv@b+3,w
  6634     05DF  00D0               	movwf	??___fldiv
  6635     05E0  0750               	addwf	??___fldiv,w
  6636     05E1  00E0               	movwf	___fldiv@bexp
  6637     05E2                     l2288:
  6638     05E2  1FCE               	btfss	___fldiv@b+2,7
  6639     05E3  2DE5               	goto	u3111
  6640     05E4  2DE6               	goto	u3110
  6641     05E5                     u3111:
  6642     05E5  2DE7               	goto	l2292
  6643     05E6                     u3110:
  6644     05E6                     l2290:
  6645     05E6  1460               	bsf	___fldiv@bexp,0
  6646     05E7                     l2292:
  6647     05E7  0860               	movf	___fldiv@bexp,w
  6648     05E8  1903               	btfsc	3,2
  6649     05E9  2DEB               	goto	u3121
  6650     05EA  2DEC               	goto	u3120
  6651     05EB                     u3121:
  6652     05EB  2DFC               	goto	l2302
  6653     05EC                     u3120:
  6654     05EC                     l2294:
  6655     05EC  0A60               	incf	___fldiv@bexp,w
  6656     05ED  1D03               	btfss	3,2
  6657     05EE  2DF0               	goto	u3131
  6658     05EF  2DF1               	goto	u3130
  6659     05F0                     u3131:
  6660     05F0  2DF9               	goto	l2298
  6661     05F1                     u3130:
  6662     05F1                     l2296:
  6663     05F1  3000               	movlw	0
  6664     05F2  00CF               	movwf	___fldiv@b+3
  6665     05F3  3000               	movlw	0
  6666     05F4  00CE               	movwf	___fldiv@b+2
  6667     05F5  3000               	movlw	0
  6668     05F6  00CD               	movwf	___fldiv@b+1
  6669     05F7  3000               	movlw	0
  6670     05F8  00CC               	movwf	___fldiv@b
  6671     05F9                     l2298:
  6672     05F9  17CE               	bsf	___fldiv@b+2,7
  6673     05FA                     l2300:
  6674     05FA  01CF               	clrf	___fldiv@b+3
  6675     05FB  2E04               	goto	l2304
  6676     05FC                     l2302:
  6677     05FC  3000               	movlw	0
  6678     05FD  00CF               	movwf	___fldiv@b+3
  6679     05FE  3000               	movlw	0
  6680     05FF  00CE               	movwf	___fldiv@b+2
  6681     0600  3000               	movlw	0
  6682     0601  00CD               	movwf	___fldiv@b+1
  6683     0602  3000               	movlw	0
  6684     0603  00CC               	movwf	___fldiv@b
  6685     0604                     l2304:
  6686     0604  084B               	movf	___fldiv@a+3,w
  6687     0605  3980               	andlw	128
  6688     0606  00FF               	movwf	btemp+1
  6689     0607  087F               	movf	btemp+1,w
  6690     0608  06D9               	xorwf	___fldiv@sign,f
  6691     0609                     l2306:
  6692     0609  084B               	movf	___fldiv@a+3,w
  6693     060A  00D0               	movwf	??___fldiv
  6694     060B  0750               	addwf	??___fldiv,w
  6695     060C  00E1               	movwf	___fldiv@aexp
  6696     060D                     l2308:
  6697     060D  1FCA               	btfss	___fldiv@a+2,7
  6698     060E  2E10               	goto	u3141
  6699     060F  2E11               	goto	u3140
  6700     0610                     u3141:
  6701     0610  2E12               	goto	l2312
  6702     0611                     u3140:
  6703     0611                     l2310:
  6704     0611  1461               	bsf	___fldiv@aexp,0
  6705     0612                     l2312:
  6706     0612  0861               	movf	___fldiv@aexp,w
  6707     0613  1903               	btfsc	3,2
  6708     0614  2E16               	goto	u3151
  6709     0615  2E17               	goto	u3150
  6710     0616                     u3151:
  6711     0616  2E27               	goto	l2322
  6712     0617                     u3150:
  6713     0617                     l2314:
  6714     0617  0A61               	incf	___fldiv@aexp,w
  6715     0618  1D03               	btfss	3,2
  6716     0619  2E1B               	goto	u3161
  6717     061A  2E1C               	goto	u3160
  6718     061B                     u3161:
  6719     061B  2E24               	goto	l2318
  6720     061C                     u3160:
  6721     061C                     l2316:
  6722     061C  3000               	movlw	0
  6723     061D  00CB               	movwf	___fldiv@a+3
  6724     061E  3000               	movlw	0
  6725     061F  00CA               	movwf	___fldiv@a+2
  6726     0620  3000               	movlw	0
  6727     0621  00C9               	movwf	___fldiv@a+1
  6728     0622  3000               	movlw	0
  6729     0623  00C8               	movwf	___fldiv@a
  6730     0624                     l2318:
  6731     0624  17CA               	bsf	___fldiv@a+2,7
  6732     0625                     l2320:
  6733     0625  01CB               	clrf	___fldiv@a+3
  6734     0626  2E2F               	goto	l512
  6735     0627                     l2322:
  6736     0627  3000               	movlw	0
  6737     0628  00CB               	movwf	___fldiv@a+3
  6738     0629  3000               	movlw	0
  6739     062A  00CA               	movwf	___fldiv@a+2
  6740     062B  3000               	movlw	0
  6741     062C  00C9               	movwf	___fldiv@a+1
  6742     062D  3000               	movlw	0
  6743     062E  00C8               	movwf	___fldiv@a
  6744     062F                     l512:
  6745     062F  084B               	movf	___fldiv@a+3,w
  6746     0630  044A               	iorwf	___fldiv@a+2,w
  6747     0631  0449               	iorwf	___fldiv@a+1,w
  6748     0632  0448               	iorwf	___fldiv@a,w
  6749     0633  1D03               	skipz
  6750     0634  2E36               	goto	u3171
  6751     0635  2E37               	goto	u3170
  6752     0636                     u3171:
  6753     0636  2E50               	goto	l2332
  6754     0637                     u3170:
  6755     0637                     l2324:
  6756     0637  3000               	movlw	0
  6757     0638  00CF               	movwf	___fldiv@b+3
  6758     0639  3000               	movlw	0
  6759     063A  00CE               	movwf	___fldiv@b+2
  6760     063B  3000               	movlw	0
  6761     063C  00CD               	movwf	___fldiv@b+1
  6762     063D  3000               	movlw	0
  6763     063E  00CC               	movwf	___fldiv@b
  6764     063F  3080               	movlw	128
  6765     0640  04CE               	iorwf	___fldiv@b+2,f
  6766     0641  307F               	movlw	127
  6767     0642  04CF               	iorwf	___fldiv@b+3,f
  6768     0643                     l2326:
  6769     0643  0859               	movf	___fldiv@sign,w
  6770     0644  00FF               	movwf	btemp+1
  6771     0645  087F               	movf	btemp+1,w
  6772     0646  04CF               	iorwf	___fldiv@b+3,f
  6773     0647                     l2328:
  6774     0647  084F               	movf	___fldiv@b+3,w
  6775     0648  00CB               	movwf	?___fldiv+3
  6776     0649  084E               	movf	___fldiv@b+2,w
  6777     064A  00CA               	movwf	?___fldiv+2
  6778     064B  084D               	movf	___fldiv@b+1,w
  6779     064C  00C9               	movwf	?___fldiv+1
  6780     064D  084C               	movf	___fldiv@b,w
  6781     064E  00C8               	movwf	?___fldiv
  6782     064F  2FA7               	goto	l514
  6783     0650                     l2332:
  6784     0650  0860               	movf	___fldiv@bexp,w
  6785     0651  1D03               	btfss	3,2
  6786     0652  2E54               	goto	u3181
  6787     0653  2E55               	goto	u3180
  6788     0654                     u3181:
  6789     0654  2E5E               	goto	l2338
  6790     0655                     u3180:
  6791     0655                     l2334:
  6792     0655  3000               	movlw	0
  6793     0656  00CB               	movwf	?___fldiv+3
  6794     0657  3000               	movlw	0
  6795     0658  00CA               	movwf	?___fldiv+2
  6796     0659  3000               	movlw	0
  6797     065A  00C9               	movwf	?___fldiv+1
  6798     065B  3000               	movlw	0
  6799     065C  00C8               	movwf	?___fldiv
  6800     065D  2FA7               	goto	l514
  6801     065E                     l2338:
  6802     065E  0860               	movf	___fldiv@bexp,w
  6803     065F  00D0               	movwf	??___fldiv
  6804     0660  01D1               	clrf	??___fldiv+1
  6805     0661  0851               	movf	??___fldiv+1,w
  6806     0662  00D3               	movwf	??___fldiv+3
  6807     0663  0861               	movf	___fldiv@aexp,w
  6808     0664  0250               	subwf	??___fldiv,w
  6809     0665  00D2               	movwf	??___fldiv+2
  6810     0666  1C03               	skipc
  6811     0667  03D3               	decf	??___fldiv+3,f
  6812     0668  0852               	movf	??___fldiv+2,w
  6813     0669  3E7F               	addlw	127
  6814     066A  00DA               	movwf	___fldiv@new_exp
  6815     066B  0853               	movf	??___fldiv+3,w
  6816     066C  1803               	skipnc
  6817     066D  3E01               	addlw	1
  6818     066E  3E00               	addlw	0
  6819     066F  00DB               	movwf	___fldiv@new_exp+1
  6820     0670                     l2340:
  6821     0670  084F               	movf	___fldiv@b+3,w
  6822     0671  00D8               	movwf	___fldiv@rem+3
  6823     0672  084E               	movf	___fldiv@b+2,w
  6824     0673  00D7               	movwf	___fldiv@rem+2
  6825     0674  084D               	movf	___fldiv@b+1,w
  6826     0675  00D6               	movwf	___fldiv@rem+1
  6827     0676  084C               	movf	___fldiv@b,w
  6828     0677  00D5               	movwf	___fldiv@rem
  6829     0678                     l2342:
  6830     0678  3000               	movlw	0
  6831     0679  00CF               	movwf	___fldiv@b+3
  6832     067A  3000               	movlw	0
  6833     067B  00CE               	movwf	___fldiv@b+2
  6834     067C  3000               	movlw	0
  6835     067D  00CD               	movwf	___fldiv@b+1
  6836     067E  3000               	movlw	0
  6837     067F  00CC               	movwf	___fldiv@b
  6838     0680                     l2344:
  6839     0680  3000               	movlw	0
  6840     0681  00DF               	movwf	___fldiv@grs+3
  6841     0682  3000               	movlw	0
  6842     0683  00DE               	movwf	___fldiv@grs+2
  6843     0684  3000               	movlw	0
  6844     0685  00DD               	movwf	___fldiv@grs+1
  6845     0686  3000               	movlw	0
  6846     0687  00DC               	movwf	___fldiv@grs
  6847     0688                     l2346:
  6848     0688  01E1               	clrf	___fldiv@aexp
  6849     0689  2ED4               	goto	l2366
  6850     068A                     l2348:
  6851     068A  0861               	movf	___fldiv@aexp,w
  6852     068B  1903               	btfsc	3,2
  6853     068C  2E8E               	goto	u3191
  6854     068D  2E8F               	goto	u3190
  6855     068E                     u3191:
  6856     068E  2EAF               	goto	l2358
  6857     068F                     u3190:
  6858     068F                     l2350:
  6859     068F  3001               	movlw	1
  6860     0690  00D0               	movwf	??___fldiv
  6861     0691                     u3205:
  6862     0691  1003               	clrc
  6863     0692  0DD5               	rlf	___fldiv@rem,f
  6864     0693  0DD6               	rlf	___fldiv@rem+1,f
  6865     0694  0DD7               	rlf	___fldiv@rem+2,f
  6866     0695  0DD8               	rlf	___fldiv@rem+3,f
  6867     0696  0BD0               	decfsz	??___fldiv,f
  6868     0697  2E91               	goto	u3205
  6869     0698  3001               	movlw	1
  6870     0699  00D0               	movwf	??___fldiv
  6871     069A                     u3215:
  6872     069A  1003               	clrc
  6873     069B  0DCC               	rlf	___fldiv@b,f
  6874     069C  0DCD               	rlf	___fldiv@b+1,f
  6875     069D  0DCE               	rlf	___fldiv@b+2,f
  6876     069E  0DCF               	rlf	___fldiv@b+3,f
  6877     069F  0BD0               	decfsz	??___fldiv,f
  6878     06A0  2E9A               	goto	u3215
  6879     06A1                     l2352:
  6880     06A1  1FDF               	btfss	___fldiv@grs+3,7
  6881     06A2  2EA4               	goto	u3221
  6882     06A3  2EA5               	goto	u3220
  6883     06A4                     u3221:
  6884     06A4  2EA6               	goto	l2356
  6885     06A5                     u3220:
  6886     06A5                     l2354:
  6887     06A5  144C               	bsf	___fldiv@b,0
  6888     06A6                     l2356:
  6889     06A6  3001               	movlw	1
  6890     06A7  00D0               	movwf	??___fldiv
  6891     06A8                     u3235:
  6892     06A8  1003               	clrc
  6893     06A9  0DDC               	rlf	___fldiv@grs,f
  6894     06AA  0DDD               	rlf	___fldiv@grs+1,f
  6895     06AB  0DDE               	rlf	___fldiv@grs+2,f
  6896     06AC  0DDF               	rlf	___fldiv@grs+3,f
  6897     06AD  0BD0               	decfsz	??___fldiv,f
  6898     06AE  2EA8               	goto	u3235
  6899     06AF                     l2358:
  6900     06AF  084B               	movf	___fldiv@a+3,w
  6901     06B0  0258               	subwf	___fldiv@rem+3,w
  6902     06B1  1D03               	skipz
  6903     06B2  2EBD               	goto	u3245
  6904     06B3  084A               	movf	___fldiv@a+2,w
  6905     06B4  0257               	subwf	___fldiv@rem+2,w
  6906     06B5  1D03               	skipz
  6907     06B6  2EBD               	goto	u3245
  6908     06B7  0849               	movf	___fldiv@a+1,w
  6909     06B8  0256               	subwf	___fldiv@rem+1,w
  6910     06B9  1D03               	skipz
  6911     06BA  2EBD               	goto	u3245
  6912     06BB  0848               	movf	___fldiv@a,w
  6913     06BC  0255               	subwf	___fldiv@rem,w
  6914     06BD                     u3245:
  6915     06BD  1C03               	skipc
  6916     06BE  2EC0               	goto	u3241
  6917     06BF  2EC1               	goto	u3240
  6918     06C0                     u3241:
  6919     06C0  2ED0               	goto	l2364
  6920     06C1                     u3240:
  6921     06C1                     l2360:
  6922     06C1  175F               	bsf	___fldiv@grs+3,6
  6923     06C2                     l2362:
  6924     06C2  0848               	movf	___fldiv@a,w
  6925     06C3  02D5               	subwf	___fldiv@rem,f
  6926     06C4  0849               	movf	___fldiv@a+1,w
  6927     06C5  1C03               	skipc
  6928     06C6  0F49               	incfsz	___fldiv@a+1,w
  6929     06C7  02D6               	subwf	___fldiv@rem+1,f
  6930     06C8  084A               	movf	___fldiv@a+2,w
  6931     06C9  1C03               	skipc
  6932     06CA  0F4A               	incfsz	___fldiv@a+2,w
  6933     06CB  02D7               	subwf	___fldiv@rem+2,f
  6934     06CC  084B               	movf	___fldiv@a+3,w
  6935     06CD  1C03               	skipc
  6936     06CE  0F4B               	incfsz	___fldiv@a+3,w
  6937     06CF  02D8               	subwf	___fldiv@rem+3,f
  6938     06D0                     l2364:
  6939     06D0  3001               	movlw	1
  6940     06D1  00FF               	movwf	btemp+1
  6941     06D2  087F               	movf	btemp+1,w
  6942     06D3  07E1               	addwf	___fldiv@aexp,f
  6943     06D4                     l2366:
  6944     06D4  301A               	movlw	26
  6945     06D5  0261               	subwf	___fldiv@aexp,w
  6946     06D6  1C03               	skipc
  6947     06D7  2ED9               	goto	u3251
  6948     06D8  2EDA               	goto	u3250
  6949     06D9                     u3251:
  6950     06D9  2E8A               	goto	l2348
  6951     06DA                     u3250:
  6952     06DA                     l2368:
  6953     06DA  0858               	movf	___fldiv@rem+3,w
  6954     06DB  0457               	iorwf	___fldiv@rem+2,w
  6955     06DC  0456               	iorwf	___fldiv@rem+1,w
  6956     06DD  0455               	iorwf	___fldiv@rem,w
  6957     06DE  1903               	skipnz
  6958     06DF  2EE1               	goto	u3261
  6959     06E0  2EE2               	goto	u3260
  6960     06E1                     u3261:
  6961     06E1  2F01               	goto	l2382
  6962     06E2                     u3260:
  6963     06E2                     l2370:
  6964     06E2  145C               	bsf	___fldiv@grs,0
  6965     06E3  2F01               	goto	l2382
  6966     06E4                     l2372:
  6967     06E4  3001               	movlw	1
  6968     06E5  00D0               	movwf	??___fldiv
  6969     06E6                     u3275:
  6970     06E6  1003               	clrc
  6971     06E7  0DCC               	rlf	___fldiv@b,f
  6972     06E8  0DCD               	rlf	___fldiv@b+1,f
  6973     06E9  0DCE               	rlf	___fldiv@b+2,f
  6974     06EA  0DCF               	rlf	___fldiv@b+3,f
  6975     06EB  0BD0               	decfsz	??___fldiv,f
  6976     06EC  2EE6               	goto	u3275
  6977     06ED                     l2374:
  6978     06ED  1FDF               	btfss	___fldiv@grs+3,7
  6979     06EE  2EF0               	goto	u3281
  6980     06EF  2EF1               	goto	u3280
  6981     06F0                     u3281:
  6982     06F0  2EF2               	goto	l2378
  6983     06F1                     u3280:
  6984     06F1                     l2376:
  6985     06F1  144C               	bsf	___fldiv@b,0
  6986     06F2                     l2378:
  6987     06F2  3001               	movlw	1
  6988     06F3  00D0               	movwf	??___fldiv
  6989     06F4                     u3295:
  6990     06F4  1003               	clrc
  6991     06F5  0DDC               	rlf	___fldiv@grs,f
  6992     06F6  0DDD               	rlf	___fldiv@grs+1,f
  6993     06F7  0DDE               	rlf	___fldiv@grs+2,f
  6994     06F8  0DDF               	rlf	___fldiv@grs+3,f
  6995     06F9  0BD0               	decfsz	??___fldiv,f
  6996     06FA  2EF4               	goto	u3295
  6997     06FB                     l2380:
  6998     06FB  30FF               	movlw	255
  6999     06FC  07DA               	addwf	___fldiv@new_exp,f
  7000     06FD  1803               	skipnc
  7001     06FE  0ADB               	incf	___fldiv@new_exp+1,f
  7002     06FF  30FF               	movlw	255
  7003     0700  07DB               	addwf	___fldiv@new_exp+1,f
  7004     0701                     l2382:
  7005     0701  1FCE               	btfss	___fldiv@b+2,7
  7006     0702  2F04               	goto	u3301
  7007     0703  2F05               	goto	u3300
  7008     0704                     u3301:
  7009     0704  2EE4               	goto	l2372
  7010     0705                     u3300:
  7011     0705                     l2384:
  7012     0705  01E1               	clrf	___fldiv@aexp
  7013     0706                     l2386:
  7014     0706  1FDF               	btfss	___fldiv@grs+3,7
  7015     0707  2F09               	goto	u3311
  7016     0708  2F0A               	goto	u3310
  7017     0709                     u3311:
  7018     0709  2F26               	goto	l2394
  7019     070A                     u3310:
  7020     070A                     l2388:
  7021     070A  30FF               	movlw	255
  7022     070B  055C               	andwf	___fldiv@grs,w
  7023     070C  00D0               	movwf	??___fldiv
  7024     070D  30FF               	movlw	255
  7025     070E  055D               	andwf	___fldiv@grs+1,w
  7026     070F  00D1               	movwf	??___fldiv+1
  7027     0710  30FF               	movlw	255
  7028     0711  055E               	andwf	___fldiv@grs+2,w
  7029     0712  00D2               	movwf	??___fldiv+2
  7030     0713  307F               	movlw	127
  7031     0714  055F               	andwf	___fldiv@grs+3,w
  7032     0715  00D3               	movwf	??___fldiv+3
  7033     0716  0853               	movf	??___fldiv+3,w
  7034     0717  0452               	iorwf	??___fldiv+2,w
  7035     0718  0451               	iorwf	??___fldiv+1,w
  7036     0719  0450               	iorwf	??___fldiv,w
  7037     071A  1903               	skipnz
  7038     071B  2F1D               	goto	u3321
  7039     071C  2F1E               	goto	u3320
  7040     071D                     u3321:
  7041     071D  2F21               	goto	l528
  7042     071E                     u3320:
  7043     071E                     l2390:
  7044     071E  01E1               	clrf	___fldiv@aexp
  7045     071F  0AE1               	incf	___fldiv@aexp,f
  7046     0720  2F26               	goto	l2394
  7047     0721                     l528:
  7048     0721  1C4C               	btfss	___fldiv@b,0
  7049     0722  2F24               	goto	u3331
  7050     0723  2F25               	goto	u3330
  7051     0724                     u3331:
  7052     0724  2F26               	goto	l2394
  7053     0725                     u3330:
  7054     0725  2F1E               	goto	l2390
  7055     0726                     l2394:
  7056     0726  0861               	movf	___fldiv@aexp,w
  7057     0727  1903               	btfsc	3,2
  7058     0728  2F2A               	goto	u3341
  7059     0729  2F2B               	goto	u3340
  7060     072A                     u3341:
  7061     072A  2F5C               	goto	l2404
  7062     072B                     u3340:
  7063     072B                     l2396:
  7064     072B  3001               	movlw	1
  7065     072C  07CC               	addwf	___fldiv@b,f
  7066     072D  3000               	movlw	0
  7067     072E  1803               	skipnc
  7068     072F  3001               	movlw	1
  7069     0730  07CD               	addwf	___fldiv@b+1,f
  7070     0731  3000               	movlw	0
  7071     0732  1803               	skipnc
  7072     0733  3001               	movlw	1
  7073     0734  07CE               	addwf	___fldiv@b+2,f
  7074     0735  3000               	movlw	0
  7075     0736  1803               	skipnc
  7076     0737  3001               	movlw	1
  7077     0738  07CF               	addwf	___fldiv@b+3,f
  7078     0739                     l2398:
  7079     0739  1C4F               	btfss	___fldiv@b+3,0
  7080     073A  2F3C               	goto	u3351
  7081     073B  2F3D               	goto	u3350
  7082     073C                     u3351:
  7083     073C  2F5C               	goto	l2404
  7084     073D                     u3350:
  7085     073D                     l2400:
  7086     073D  084C               	movf	___fldiv@b,w
  7087     073E  00D0               	movwf	??___fldiv
  7088     073F  084D               	movf	___fldiv@b+1,w
  7089     0740  00D1               	movwf	??___fldiv+1
  7090     0741  084E               	movf	___fldiv@b+2,w
  7091     0742  00D2               	movwf	??___fldiv+2
  7092     0743  084F               	movf	___fldiv@b+3,w
  7093     0744  00D3               	movwf	??___fldiv+3
  7094     0745  3001               	movlw	1
  7095     0746  00D4               	movwf	??___fldiv+4
  7096     0747                     u3365:
  7097     0747  0D53               	rlf	??___fldiv+3,w
  7098     0748  0CD3               	rrf	??___fldiv+3,f
  7099     0749  0CD2               	rrf	??___fldiv+2,f
  7100     074A  0CD1               	rrf	??___fldiv+1,f
  7101     074B  0CD0               	rrf	??___fldiv,f
  7102     074C                     u3360:
  7103     074C  0BD4               	decfsz	??___fldiv+4,f
  7104     074D  2F47               	goto	u3365
  7105     074E  0853               	movf	??___fldiv+3,w
  7106     074F  00CF               	movwf	___fldiv@b+3
  7107     0750  0852               	movf	??___fldiv+2,w
  7108     0751  00CE               	movwf	___fldiv@b+2
  7109     0752  0851               	movf	??___fldiv+1,w
  7110     0753  00CD               	movwf	___fldiv@b+1
  7111     0754  0850               	movf	??___fldiv,w
  7112     0755  00CC               	movwf	___fldiv@b
  7113     0756                     l2402:
  7114     0756  3001               	movlw	1
  7115     0757  07DA               	addwf	___fldiv@new_exp,f
  7116     0758  1803               	skipnc
  7117     0759  0ADB               	incf	___fldiv@new_exp+1,f
  7118     075A  3000               	movlw	0
  7119     075B  07DB               	addwf	___fldiv@new_exp+1,f
  7120     075C                     l2404:
  7121     075C  085B               	movf	___fldiv@new_exp+1,w
  7122     075D  3A80               	xorlw	128
  7123     075E  00FF               	movwf	btemp+1
  7124     075F  3080               	movlw	128
  7125     0760  027F               	subwf	btemp+1,w
  7126     0761  1D03               	skipz
  7127     0762  2F65               	goto	u3375
  7128     0763  30FF               	movlw	255
  7129     0764  025A               	subwf	___fldiv@new_exp,w
  7130     0765                     u3375:
  7131     0765  1C03               	skipc
  7132     0766  2F68               	goto	u3371
  7133     0767  2F69               	goto	u3370
  7134     0768                     u3371:
  7135     0768  2F77               	goto	l2408
  7136     0769                     u3370:
  7137     0769                     l2406:
  7138     0769  30FF               	movlw	255
  7139     076A  1283               	bcf	3,5	;RP0=0, select bank0
  7140     076B  1303               	bcf	3,6	;RP1=0, select bank0
  7141     076C  00DA               	movwf	___fldiv@new_exp
  7142     076D  3000               	movlw	0
  7143     076E  00DB               	movwf	___fldiv@new_exp+1
  7144     076F  3000               	movlw	0
  7145     0770  00CF               	movwf	___fldiv@b+3
  7146     0771  3000               	movlw	0
  7147     0772  00CE               	movwf	___fldiv@b+2
  7148     0773  3000               	movlw	0
  7149     0774  00CD               	movwf	___fldiv@b+1
  7150     0775  3000               	movlw	0
  7151     0776  00CC               	movwf	___fldiv@b
  7152     0777                     l2408:
  7153     0777  1283               	bcf	3,5	;RP0=0, select bank0
  7154     0778  1303               	bcf	3,6	;RP1=0, select bank0
  7155     0779  085B               	movf	___fldiv@new_exp+1,w
  7156     077A  3A80               	xorlw	128
  7157     077B  00FF               	movwf	btemp+1
  7158     077C  3080               	movlw	128
  7159     077D  027F               	subwf	btemp+1,w
  7160     077E  1D03               	skipz
  7161     077F  2F82               	goto	u3385
  7162     0780  3001               	movlw	1
  7163     0781  025A               	subwf	___fldiv@new_exp,w
  7164     0782                     u3385:
  7165     0782  1803               	skipnc
  7166     0783  2F85               	goto	u3381
  7167     0784  2F86               	goto	u3380
  7168     0785                     u3381:
  7169     0785  2F93               	goto	l534
  7170     0786                     u3380:
  7171     0786                     l2410:
  7172     0786  1283               	bcf	3,5	;RP0=0, select bank0
  7173     0787  1303               	bcf	3,6	;RP1=0, select bank0
  7174     0788  01DA               	clrf	___fldiv@new_exp
  7175     0789  01DB               	clrf	___fldiv@new_exp+1
  7176     078A                     l2412:
  7177     078A  3000               	movlw	0
  7178     078B  00CF               	movwf	___fldiv@b+3
  7179     078C  3000               	movlw	0
  7180     078D  00CE               	movwf	___fldiv@b+2
  7181     078E  3000               	movlw	0
  7182     078F  00CD               	movwf	___fldiv@b+1
  7183     0790  3000               	movlw	0
  7184     0791  00CC               	movwf	___fldiv@b
  7185     0792                     l2414:
  7186     0792  01D9               	clrf	___fldiv@sign
  7187     0793                     l534:
  7188     0793  1283               	bcf	3,5	;RP0=0, select bank0
  7189     0794  1303               	bcf	3,6	;RP1=0, select bank0
  7190     0795  085A               	movf	___fldiv@new_exp,w
  7191     0796  00E0               	movwf	___fldiv@bexp
  7192     0797                     l2416:
  7193     0797  1C60               	btfss	___fldiv@bexp,0
  7194     0798  2F9A               	goto	u3391
  7195     0799  2F9B               	goto	u3390
  7196     079A                     u3391:
  7197     079A  2F9D               	goto	l2420
  7198     079B                     u3390:
  7199     079B                     l2418:
  7200     079B  17CE               	bsf	___fldiv@b+2,7
  7201     079C  2FA1               	goto	l2422
  7202     079D                     l2420:
  7203     079D  307F               	movlw	127
  7204     079E  00FF               	movwf	btemp+1
  7205     079F  087F               	movf	btemp+1,w
  7206     07A0  05CE               	andwf	___fldiv@b+2,f
  7207     07A1                     l2422:
  7208     07A1  0860               	movf	___fldiv@bexp,w
  7209     07A2  00D0               	movwf	??___fldiv
  7210     07A3  1003               	clrc
  7211     07A4  0C50               	rrf	??___fldiv,w
  7212     07A5  00CF               	movwf	___fldiv@b+3
  7213     07A6  2E43               	goto	l2326
  7214     07A7                     l514:
  7215     07A7  0008               	return
  7216     07A8                     __end_of___fldiv:
  7217                           
  7218                           	psect	text25
  7219     1DEF                     __ptext25:	
  7220 ;; *************** function _init_config *****************
  7221 ;; Defined at:
  7222 ;;		line 59 in file "newmain.c"
  7223 ;; Parameters:    Size  Location     Type
  7224 ;;		None
  7225 ;; Auto vars:     Size  Location     Type
  7226 ;;		None
  7227 ;; Return value:  Size  Location     Type
  7228 ;;                  1    wreg      void 
  7229 ;; Registers used:
  7230 ;;		wreg, status,2
  7231 ;; Tracked objects:
  7232 ;;		On entry : 0/0
  7233 ;;		On exit  : 0/0
  7234 ;;		Unchanged: 0/0
  7235 ;; Data sizes:     COMMON   BANK0   BANK1   BANK3   BANK2
  7236 ;;      Params:         0       0       0       0       0
  7237 ;;      Locals:         0       0       0       0       0
  7238 ;;      Temps:          0       0       0       0       0
  7239 ;;      Totals:         0       0       0       0       0
  7240 ;;Total ram usage:        0 bytes
  7241 ;; Hardware stack levels used: 1
  7242 ;; Hardware stack levels required when called: 3
  7243 ;; This function calls:
  7244 ;;		Nothing
  7245 ;; This function is called by:
  7246 ;;		_main
  7247 ;; This function uses a non-reentrant model
  7248 ;;
  7249                           
  7250     1DEF                     _init_config:	
  7251                           ;psect for function _init_config
  7252                           
  7253     1DEF                     l2952:	
  7254                           ;incstack = 0
  7255                           ; Regs used in _init_config: [wreg+status,2]
  7256                           
  7257                           
  7258                           ;newmain.c: 61: 
  7259     1DEF  1683               	bsf	3,5	;RP0=1, select bank1
  7260     1DF0  1303               	bcf	3,6	;RP1=0, select bank1
  7261     1DF1  0188               	clrf	8	;volatile
  7262     1DF2                     l2954:
  7263                           
  7264                           ;newmain.c: 62: void UART_send_string(const char* str) {
  7265     1DF2  3001               	movlw	1
  7266     1DF3  0085               	movwf	5	;volatile
  7267     1DF4                     l2956:
  7268                           
  7269                           ;newmain.c: 63:     while (*str) {
  7270     1DF4  3001               	movlw	1
  7271     1DF5  0086               	movwf	6	;volatile
  7272     1DF6                     l2958:
  7273                           
  7274                           ;newmain.c: 66:     }
  7275     1DF6  3041               	movlw	65
  7276     1DF7  1283               	bcf	3,5	;RP0=0, select bank0
  7277     1DF8  1303               	bcf	3,6	;RP1=0, select bank0
  7278     1DF9  009F               	movwf	31	;volatile
  7279     1DFA                     l2960:
  7280                           
  7281                           ;newmain.c: 67: }
  7282     1DFA  308E               	movlw	142
  7283     1DFB  1683               	bsf	3,5	;RP0=1, select bank1
  7284     1DFC  1303               	bcf	3,6	;RP1=0, select bank1
  7285     1DFD  009F               	movwf	31	;volatile
  7286     1DFE                     l2962:
  7287                           
  7288                           ;newmain.c: 70:     if (INTCONbits.INTF) {
  7289     1DFE  1218               	bcf	24,4	;volatile
  7290     1DFF                     l2964:
  7291                           
  7292                           ;newmain.c: 71: 
  7293     1DFF  1518               	bsf	24,2	;volatile
  7294     1E00                     l2966:
  7295                           
  7296                           ;newmain.c: 72:         PORTD = 0x00;
  7297     1E00  3081               	movlw	129
  7298     1E01  0099               	movwf	25	;volatile
  7299     1E02                     l2968:
  7300                           
  7301                           ;newmain.c: 73:         PORTDbits.RD4 = 1;
  7302     1E02  1283               	bcf	3,5	;RP0=0, select bank0
  7303     1E03  1303               	bcf	3,6	;RP1=0, select bank0
  7304     1E04  1798               	bsf	24,7	;volatile
  7305     1E05                     l2970:
  7306                           
  7307                           ;newmain.c: 74:         _delay((unsigned long)((500)*(20000000/4000.0)));
  7308     1E05  1683               	bsf	3,5	;RP0=1, select bank1
  7309     1E06  1303               	bcf	3,6	;RP1=0, select bank1
  7310     1E07  1698               	bsf	24,5	;volatile
  7311     1E08                     l2972:
  7312                           
  7313                           ;newmain.c: 77: 
  7314     1E08  178B               	bsf	11,7	;volatile
  7315     1E09                     l2974:
  7316                           
  7317                           ;newmain.c: 78:         UART_send_string("Interrupt executed\r\n");
  7318     1E09  170B               	bsf	11,6	;volatile
  7319     1E0A                     l2976:
  7320                           
  7321                           ;newmain.c: 79: 
  7322     1E0A  160B               	bsf	11,4	;volatile
  7323     1E0B                     l2978:
  7324                           
  7325                           ;newmain.c: 80: 
  7326     1E0B  1701               	bsf	1,6	;volatile
  7327     1E0C                     l2980:
  7328                           
  7329                           ;newmain.c: 83: }
  7330     1E0C  1283               	bcf	3,5	;RP0=0, select bank0
  7331     1E0D  1303               	bcf	3,6	;RP1=0, select bank0
  7332     1E0E  0188               	clrf	8	;volatile
  7333     1E0F                     l54:
  7334     1E0F  0008               	return
  7335     1E10                     __end_of_init_config:
  7336                           
  7337                           	psect	text26
  7338     11C8                     __ptext26:	
  7339 ;; *************** function ___xxtofl *****************
  7340 ;; Defined at:
  7341 ;;		line 10 in file "C:\Program Files\Microchip\xc8\v2.46\pic\sources\c99\common\xxtofl.c"
  7342 ;; Parameters:    Size  Location     Type
  7343 ;;  sign            1    wreg     unsigned char 
  7344 ;;  val             4    0[BANK0 ] long 
  7345 ;; Auto vars:     Size  Location     Type
  7346 ;;  sign            1    8[BANK0 ] unsigned char 
  7347 ;;  arg             4   10[BANK0 ] unsigned long 
  7348 ;;  exp             1    9[BANK0 ] unsigned char 
  7349 ;; Return value:  Size  Location     Type
  7350 ;;                  4    0[BANK0 ] unsigned char 
  7351 ;; Registers used:
  7352 ;;		wreg, status,2, status,0, btemp+1
  7353 ;; Tracked objects:
  7354 ;;		On entry : 0/0
  7355 ;;		On exit  : 0/0
  7356 ;;		Unchanged: 0/0
  7357 ;; Data sizes:     COMMON   BANK0   BANK1   BANK3   BANK2
  7358 ;;      Params:         0       4       0       0       0
  7359 ;;      Locals:         0       6       0       0       0
  7360 ;;      Temps:          0       4       0       0       0
  7361 ;;      Totals:         0      14       0       0       0
  7362 ;;Total ram usage:       14 bytes
  7363 ;; Hardware stack levels used: 1
  7364 ;; Hardware stack levels required when called: 3
  7365 ;; This function calls:
  7366 ;;		Nothing
  7367 ;; This function is called by:
  7368 ;;		_main
  7369 ;; This function uses a non-reentrant model
  7370 ;;
  7371                           
  7372     11C8                     ___xxtofl:	
  7373                           ;psect for function ___xxtofl
  7374                           
  7375                           
  7376                           ;incstack = 0
  7377                           ; Regs used in ___xxtofl: [wreg+status,2+status,0+btemp+1]
  7378                           ;___xxtofl@sign stored from wreg
  7379     11C8  1283               	bcf	3,5	;RP0=0, select bank0
  7380     11C9  1303               	bcf	3,6	;RP1=0, select bank0
  7381     11CA  00A8               	movwf	___xxtofl@sign
  7382     11CB                     l3002:
  7383     11CB  0828               	movf	___xxtofl@sign,w
  7384     11CC  1903               	btfsc	3,2
  7385     11CD  29CF               	goto	u4451
  7386     11CE  29D0               	goto	u4450
  7387     11CF                     u4451:
  7388     11CF  29E4               	goto	l3008
  7389     11D0                     u4450:
  7390     11D0                     l3004:
  7391     11D0  1FA3               	btfss	___xxtofl@val+3,7
  7392     11D1  29D3               	goto	u4461
  7393     11D2  29D4               	goto	u4460
  7394     11D3                     u4461:
  7395     11D3  29E4               	goto	l3008
  7396     11D4                     u4460:
  7397     11D4                     l3006:
  7398     11D4  0920               	comf	___xxtofl@val,w
  7399     11D5  00AA               	movwf	___xxtofl@arg
  7400     11D6  0921               	comf	___xxtofl@val+1,w
  7401     11D7  00AB               	movwf	___xxtofl@arg+1
  7402     11D8  0922               	comf	___xxtofl@val+2,w
  7403     11D9  00AC               	movwf	___xxtofl@arg+2
  7404     11DA  0923               	comf	___xxtofl@val+3,w
  7405     11DB  00AD               	movwf	___xxtofl@arg+3
  7406     11DC  0AAA               	incf	___xxtofl@arg,f
  7407     11DD  1903               	skipnz
  7408     11DE  0AAB               	incf	___xxtofl@arg+1,f
  7409     11DF  1903               	skipnz
  7410     11E0  0AAC               	incf	___xxtofl@arg+2,f
  7411     11E1  1903               	skipnz
  7412     11E2  0AAD               	incf	___xxtofl@arg+3,f
  7413     11E3  29EC               	goto	l596
  7414     11E4                     l3008:
  7415     11E4  0823               	movf	___xxtofl@val+3,w
  7416     11E5  00AD               	movwf	___xxtofl@arg+3
  7417     11E6  0822               	movf	___xxtofl@val+2,w
  7418     11E7  00AC               	movwf	___xxtofl@arg+2
  7419     11E8  0821               	movf	___xxtofl@val+1,w
  7420     11E9  00AB               	movwf	___xxtofl@arg+1
  7421     11EA  0820               	movf	___xxtofl@val,w
  7422     11EB  00AA               	movwf	___xxtofl@arg
  7423     11EC                     l596:
  7424     11EC  0823               	movf	___xxtofl@val+3,w
  7425     11ED  0422               	iorwf	___xxtofl@val+2,w
  7426     11EE  0421               	iorwf	___xxtofl@val+1,w
  7427     11EF  0420               	iorwf	___xxtofl@val,w
  7428     11F0  1D03               	skipz
  7429     11F1  29F3               	goto	u4471
  7430     11F2  29F4               	goto	u4470
  7431     11F3                     u4471:
  7432     11F3  29FD               	goto	l3014
  7433     11F4                     u4470:
  7434     11F4                     l3010:
  7435     11F4  3000               	movlw	0
  7436     11F5  00A3               	movwf	?___xxtofl+3
  7437     11F6  3000               	movlw	0
  7438     11F7  00A2               	movwf	?___xxtofl+2
  7439     11F8  3000               	movlw	0
  7440     11F9  00A1               	movwf	?___xxtofl+1
  7441     11FA  3000               	movlw	0
  7442     11FB  00A0               	movwf	?___xxtofl
  7443     11FC  2A81               	goto	l598
  7444     11FD                     l3014:
  7445     11FD  3096               	movlw	150
  7446     11FE  00A9               	movwf	___xxtofl@exp
  7447     11FF  2A0D               	goto	l3020
  7448     1200                     l3016:
  7449     1200  3001               	movlw	1
  7450     1201  00FF               	movwf	btemp+1
  7451     1202  087F               	movf	btemp+1,w
  7452     1203  07A9               	addwf	___xxtofl@exp,f
  7453     1204                     l3018:
  7454     1204  3001               	movlw	1
  7455     1205                     u4485:
  7456     1205  1003               	clrc
  7457     1206  0CAD               	rrf	___xxtofl@arg+3,f
  7458     1207  0CAC               	rrf	___xxtofl@arg+2,f
  7459     1208  0CAB               	rrf	___xxtofl@arg+1,f
  7460     1209  0CAA               	rrf	___xxtofl@arg,f
  7461     120A  3EFF               	addlw	-1
  7462     120B  1D03               	skipz
  7463     120C  2A05               	goto	u4485
  7464     120D                     l3020:
  7465     120D  30FE               	movlw	254
  7466     120E  052D               	andwf	___xxtofl@arg+3,w
  7467     120F  1D03               	btfss	3,2
  7468     1210  2A12               	goto	u4491
  7469     1211  2A13               	goto	u4490
  7470     1212                     u4491:
  7471     1212  2A00               	goto	l3016
  7472     1213                     u4490:
  7473     1213  2A2F               	goto	l3028
  7474     1214                     l3022:
  7475     1214  3001               	movlw	1
  7476     1215  00FF               	movwf	btemp+1
  7477     1216  087F               	movf	btemp+1,w
  7478     1217  07A9               	addwf	___xxtofl@exp,f
  7479     1218                     l3024:
  7480     1218  3001               	movlw	1
  7481     1219  07AA               	addwf	___xxtofl@arg,f
  7482     121A  3000               	movlw	0
  7483     121B  1803               	skipnc
  7484     121C  3001               	movlw	1
  7485     121D  07AB               	addwf	___xxtofl@arg+1,f
  7486     121E  3000               	movlw	0
  7487     121F  1803               	skipnc
  7488     1220  3001               	movlw	1
  7489     1221  07AC               	addwf	___xxtofl@arg+2,f
  7490     1222  3000               	movlw	0
  7491     1223  1803               	skipnc
  7492     1224  3001               	movlw	1
  7493     1225  07AD               	addwf	___xxtofl@arg+3,f
  7494     1226                     l3026:
  7495     1226  3001               	movlw	1
  7496     1227                     u4505:
  7497     1227  1003               	clrc
  7498     1228  0CAD               	rrf	___xxtofl@arg+3,f
  7499     1229  0CAC               	rrf	___xxtofl@arg+2,f
  7500     122A  0CAB               	rrf	___xxtofl@arg+1,f
  7501     122B  0CAA               	rrf	___xxtofl@arg,f
  7502     122C  3EFF               	addlw	-1
  7503     122D  1D03               	skipz
  7504     122E  2A27               	goto	u4505
  7505     122F                     l3028:
  7506     122F  30FF               	movlw	255
  7507     1230  052D               	andwf	___xxtofl@arg+3,w
  7508     1231  1D03               	btfss	3,2
  7509     1232  2A34               	goto	u4511
  7510     1233  2A35               	goto	u4510
  7511     1234                     u4511:
  7512     1234  2A14               	goto	l3022
  7513     1235                     u4510:
  7514     1235  2A41               	goto	l3032
  7515     1236                     l3030:
  7516     1236  3001               	movlw	1
  7517     1237  02A9               	subwf	___xxtofl@exp,f
  7518     1238  3001               	movlw	1
  7519     1239  00A4               	movwf	??___xxtofl
  7520     123A                     u4525:
  7521     123A  1003               	clrc
  7522     123B  0DAA               	rlf	___xxtofl@arg,f
  7523     123C  0DAB               	rlf	___xxtofl@arg+1,f
  7524     123D  0DAC               	rlf	___xxtofl@arg+2,f
  7525     123E  0DAD               	rlf	___xxtofl@arg+3,f
  7526     123F  0BA4               	decfsz	??___xxtofl,f
  7527     1240  2A3A               	goto	u4525
  7528     1241                     l3032:
  7529     1241  1BAC               	btfsc	___xxtofl@arg+2,7
  7530     1242  2A44               	goto	u4531
  7531     1243  2A45               	goto	u4530
  7532     1244                     u4531:
  7533     1244  2A4B               	goto	l609
  7534     1245                     u4530:
  7535     1245                     l3034:
  7536     1245  3002               	movlw	2
  7537     1246  0229               	subwf	___xxtofl@exp,w
  7538     1247  1803               	skipnc
  7539     1248  2A4A               	goto	u4541
  7540     1249  2A4B               	goto	u4540
  7541     124A                     u4541:
  7542     124A  2A36               	goto	l3030
  7543     124B                     u4540:
  7544     124B                     l609:
  7545     124B  1829               	btfsc	___xxtofl@exp,0
  7546     124C  2A4E               	goto	u4551
  7547     124D  2A4F               	goto	u4550
  7548     124E                     u4551:
  7549     124E  2A57               	goto	l610
  7550     124F                     u4550:
  7551     124F                     l3036:
  7552     124F  30FF               	movlw	255
  7553     1250  05AA               	andwf	___xxtofl@arg,f
  7554     1251  30FF               	movlw	255
  7555     1252  05AB               	andwf	___xxtofl@arg+1,f
  7556     1253  307F               	movlw	127
  7557     1254  05AC               	andwf	___xxtofl@arg+2,f
  7558     1255  30FF               	movlw	255
  7559     1256  05AD               	andwf	___xxtofl@arg+3,f
  7560     1257                     l610:
  7561     1257  1003               	clrc
  7562     1258  0CA9               	rrf	___xxtofl@exp,f
  7563     1259                     l3038:
  7564     1259  0829               	movf	___xxtofl@exp,w
  7565     125A  00A4               	movwf	??___xxtofl
  7566     125B  01A5               	clrf	??___xxtofl+1
  7567     125C  01A6               	clrf	??___xxtofl+2
  7568     125D  01A7               	clrf	??___xxtofl+3
  7569     125E  3018               	movlw	24
  7570     125F                     u4565:
  7571     125F  1003               	clrc
  7572     1260  0DA4               	rlf	??___xxtofl,f
  7573     1261  0DA5               	rlf	??___xxtofl+1,f
  7574     1262  0DA6               	rlf	??___xxtofl+2,f
  7575     1263  0DA7               	rlf	??___xxtofl+3,f
  7576     1264                     u4560:
  7577     1264  3EFF               	addlw	-1
  7578     1265  1D03               	skipz
  7579     1266  2A5F               	goto	u4565
  7580     1267  0824               	movf	??___xxtofl,w
  7581     1268  04AA               	iorwf	___xxtofl@arg,f
  7582     1269  0825               	movf	??___xxtofl+1,w
  7583     126A  04AB               	iorwf	___xxtofl@arg+1,f
  7584     126B  0826               	movf	??___xxtofl+2,w
  7585     126C  04AC               	iorwf	___xxtofl@arg+2,f
  7586     126D  0827               	movf	??___xxtofl+3,w
  7587     126E  04AD               	iorwf	___xxtofl@arg+3,f
  7588     126F                     l3040:
  7589     126F  0828               	movf	___xxtofl@sign,w
  7590     1270  1903               	btfsc	3,2
  7591     1271  2A73               	goto	u4571
  7592     1272  2A74               	goto	u4570
  7593     1273                     u4571:
  7594     1273  2A79               	goto	l3046
  7595     1274                     u4570:
  7596     1274                     l3042:
  7597     1274  1FA3               	btfss	___xxtofl@val+3,7
  7598     1275  2A77               	goto	u4581
  7599     1276  2A78               	goto	u4580
  7600     1277                     u4581:
  7601     1277  2A79               	goto	l3046
  7602     1278                     u4580:
  7603     1278                     l3044:
  7604     1278  17AD               	bsf	___xxtofl@arg+3,7
  7605     1279                     l3046:
  7606     1279  082D               	movf	___xxtofl@arg+3,w
  7607     127A  00A3               	movwf	?___xxtofl+3
  7608     127B  082C               	movf	___xxtofl@arg+2,w
  7609     127C  00A2               	movwf	?___xxtofl+2
  7610     127D  082B               	movf	___xxtofl@arg+1,w
  7611     127E  00A1               	movwf	?___xxtofl+1
  7612     127F  082A               	movf	___xxtofl@arg,w
  7613     1280  00A0               	movwf	?___xxtofl
  7614     1281                     l598:
  7615     1281  0008               	return
  7616     1282                     __end_of___xxtofl:
  7617                           
  7618                           	psect	text27
  7619     1F18                     __ptext27:	
  7620 ;; *************** function _UART_send_string *****************
  7621 ;; Defined at:
  7622 ;;		line 86 in file "newmain.c"
  7623 ;; Parameters:    Size  Location     Type
  7624 ;;  str             2    0[BANK0 ] PTR const unsigned char 
  7625 ;;		 -> STR_2(21), main@buffer(32), 
  7626 ;; Auto vars:     Size  Location     Type
  7627 ;;		None
  7628 ;; Return value:  Size  Location     Type
  7629 ;;                  1    wreg      void 
  7630 ;; Registers used:
  7631 ;;		wreg, fsr0l, fsr0h, btemp+1, pclath
  7632 ;; Tracked objects:
  7633 ;;		On entry : 0/0
  7634 ;;		On exit  : 0/0
  7635 ;;		Unchanged: 0/0
  7636 ;; Data sizes:     COMMON   BANK0   BANK1   BANK3   BANK2
  7637 ;;      Params:         0       2       0       0       0
  7638 ;;      Locals:         0       0       0       0       0
  7639 ;;      Temps:          0       0       0       0       0
  7640 ;;      Totals:         0       2       0       0       0
  7641 ;;Total ram usage:        2 bytes
  7642 ;; Hardware stack levels used: 1
  7643 ;; Hardware stack levels required when called: 3
  7644 ;; This function calls:
  7645 ;;		Nothing
  7646 ;; This function is called by:
  7647 ;;		_main
  7648 ;; This function uses a non-reentrant model
  7649 ;;
  7650                           
  7651     1F18                     _UART_send_string:	
  7652                           ;psect for function _UART_send_string
  7653                           
  7654     1F18                     l2994:	
  7655                           ;incstack = 0
  7656                           ; Regs used in _UART_send_string: [wreg-fsr0h+btemp+1+pclath]
  7657                           
  7658     1F18  2F31               	goto	l3000
  7659     1F19                     l59:
  7660     1F19  1683               	bsf	3,5	;RP0=1, select bank1
  7661     1F1A  1303               	bcf	3,6	;RP1=0, select bank1
  7662     1F1B  1C98               	btfss	24,1	;volatile
  7663     1F1C  2F1E               	goto	u4431
  7664     1F1D  2F1F               	goto	u4430
  7665     1F1E                     u4431:
  7666     1F1E  2F19               	goto	l59
  7667     1F1F                     u4430:
  7668     1F1F                     l2996:
  7669     1F1F  1283               	bcf	3,5	;RP0=0, select bank0
  7670     1F20  1303               	bcf	3,6	;RP1=0, select bank0
  7671     1F21  0821               	movf	UART_send_string@str+1,w
  7672     1F22  00FF               	movwf	btemp+1
  7673     1F23  0820               	movf	UART_send_string@str,w
  7674     1F24  0084               	movwf	4
  7675     1F25  160A  158A  2000  160A  158A  	fcall	stringtab
  7676     1F2A  0099               	movwf	25	;volatile
  7677     1F2B                     l2998:
  7678     1F2B  3001               	movlw	1
  7679     1F2C  07A0               	addwf	UART_send_string@str,f
  7680     1F2D  1803               	skipnc
  7681     1F2E  0AA1               	incf	UART_send_string@str+1,f
  7682     1F2F  3000               	movlw	0
  7683     1F30  07A1               	addwf	UART_send_string@str+1,f
  7684     1F31                     l3000:
  7685     1F31  1283               	bcf	3,5	;RP0=0, select bank0
  7686     1F32  1303               	bcf	3,6	;RP1=0, select bank0
  7687     1F33  0821               	movf	UART_send_string@str+1,w
  7688     1F34  00FF               	movwf	btemp+1
  7689     1F35  0820               	movf	UART_send_string@str,w
  7690     1F36  0084               	movwf	4
  7691     1F37  160A  158A  2000  160A  158A  	fcall	stringtab
  7692     1F3C  3A00               	xorlw	0
  7693     1F3D  1D03               	skipz
  7694     1F3E  2F40               	goto	u4441
  7695     1F3F  2F41               	goto	u4440
  7696     1F40                     u4441:
  7697     1F40  2F19               	goto	l59
  7698     1F41                     u4440:
  7699     1F41                     l63:
  7700     1F41  0008               	return
  7701     1F42                     __end_of_UART_send_string:
  7702                           
  7703                           	psect	text28
  7704     100C                     __ptext28:	
  7705 ;; *************** function _ISR *****************
  7706 ;; Defined at:
  7707 ;;		line 93 in file "newmain.c"
  7708 ;; Parameters:    Size  Location     Type
  7709 ;;		None
  7710 ;; Auto vars:     Size  Location     Type
  7711 ;;		None
  7712 ;; Return value:  Size  Location     Type
  7713 ;;                  1    wreg      void 
  7714 ;; Registers used:
  7715 ;;		wreg, fsr0l, fsr0h, status,2, status,0, btemp+1, pclath, cstack
  7716 ;; Tracked objects:
  7717 ;;		On entry : 0/0
  7718 ;;		On exit  : 0/0
  7719 ;;		Unchanged: 0/0
  7720 ;; Data sizes:     COMMON   BANK0   BANK1   BANK3   BANK2
  7721 ;;      Params:         0       0       0       0       0
  7722 ;;      Locals:         0       0       0       0       0
  7723 ;;      Temps:          7       0       0       0       0
  7724 ;;      Totals:         7       0       0       0       0
  7725 ;;Total ram usage:        7 bytes
  7726 ;; Hardware stack levels used: 1
  7727 ;; Hardware stack levels required when called: 2
  7728 ;; This function calls:
  7729 ;;		i1_UART_send_string
  7730 ;; This function is called by:
  7731 ;;		Interrupt level 1
  7732 ;; This function uses a non-reentrant model
  7733 ;;
  7734                           
  7735     100C                     _ISR:	
  7736                           ;psect for function _ISR
  7737                           
  7738     100C                     i1l3082:
  7739     100C  1C8B               	btfss	11,1	;volatile
  7740     100D  280F               	goto	u462_21
  7741     100E  2810               	goto	u462_20
  7742     100F                     u462_21:
  7743     100F  282E               	goto	i1l69
  7744     1010                     u462_20:
  7745     1010                     i1l3084:
  7746     1010  1283               	bcf	3,5	;RP0=0, select bank0
  7747     1011  1303               	bcf	3,6	;RP1=0, select bank0
  7748     1012  0188               	clrf	8	;volatile
  7749     1013                     i1l3086:
  7750     1013  1608               	bsf	8,4	;volatile
  7751     1014                     i1l3088:
  7752     1014  300D               	movlw	13
  7753     1015  00F4               	movwf	??_ISR+2
  7754     1016  30AF               	movlw	175
  7755     1017  00F3               	movwf	??_ISR+1
  7756     1018  30B6               	movlw	182
  7757     1019  00F2               	movwf	??_ISR
  7758     101A                     u465_27:
  7759     101A  0BF2               	decfsz	??_ISR,f
  7760     101B  281A               	goto	u465_27
  7761     101C  0BF3               	decfsz	??_ISR+1,f
  7762     101D  281A               	goto	u465_27
  7763     101E  0BF4               	decfsz	??_ISR+2,f
  7764     101F  281A               	goto	u465_27
  7765     1020  0000               	nop
  7766     1021                     i1l3090:
  7767     1021  1283               	bcf	3,5	;RP0=0, select bank0
  7768     1022  1303               	bcf	3,6	;RP1=0, select bank0
  7769     1023  1208               	bcf	8,4	;volatile
  7770     1024                     i1l3092:
  7771     1024  3001               	movlw	(low ((STR_2-__stringbase)| (0+32768)))& (0+255)
  7772     1025  00F0               	movwf	i1UART_send_string@str
  7773     1026  3080               	movlw	128
  7774     1027  00F1               	movwf	i1UART_send_string@str+1
  7775     1028  160A  158A  26EE  160A  118A  	fcall	i1_UART_send_string
  7776     102D                     i1l3094:
  7777     102D  108B               	bcf	11,1	;volatile
  7778     102E                     i1l69:
  7779     102E  0878               	movf	??_ISR+6,w
  7780     102F  00FF               	movwf	btemp+1
  7781     1030  0877               	movf	??_ISR+5,w
  7782     1031  008A               	movwf	10
  7783     1032  0876               	movf	??_ISR+4,w
  7784     1033  0084               	movwf	4
  7785     1034  0E75               	swapf	??_ISR+3,w
  7786     1035  0083               	movwf	3
  7787     1036  0EFE               	swapf	btemp,f
  7788     1037  0E7E               	swapf	btemp,w
  7789     1038  0009               	retfie
  7790     1039                     __end_of_ISR:
  7791                           
  7792                           	psect	intentry
  7793     0004                     __pintentry:	
  7794                           ;incstack = 0
  7795 ;; hardware stack exceeded
  7796                           ; Regs used in _ISR: [wreg-fsr0h+status,2+status,0+btemp+1+pclath+cstack]
  7797                           
  7798     0004                     interrupt_function:
  7799     007E                     saved_w	set	btemp
  7800     0004  00FE               	movwf	btemp
  7801     0005  0E03               	swapf	3,w
  7802     0006  00F5               	movwf	??_ISR+3
  7803     0007  0804               	movf	4,w
  7804     0008  00F6               	movwf	??_ISR+4
  7805     0009  080A               	movf	10,w
  7806     000A  00F7               	movwf	??_ISR+5
  7807     000B  087F               	movf	btemp+1,w
  7808     000C  00F8               	movwf	??_ISR+6
  7809     000D  160A  118A  280C   	ljmp	_ISR
  7810                           
  7811                           	psect	text29
  7812     1EEE                     __ptext29:	
  7813 ;; *************** function i1_UART_send_string *****************
  7814 ;; Defined at:
  7815 ;;		line 86 in file "newmain.c"
  7816 ;; Parameters:    Size  Location     Type
  7817 ;;  str             2    0[COMMON] PTR const unsigned char 
  7818 ;;		 -> STR_2(21), main@buffer(32), 
  7819 ;; Auto vars:     Size  Location     Type
  7820 ;;		None
  7821 ;; Return value:  Size  Location     Type
  7822 ;;                  1    wreg      void 
  7823 ;; Registers used:
  7824 ;;		wreg, fsr0l, fsr0h, btemp+1, pclath
  7825 ;; Tracked objects:
  7826 ;;		On entry : 0/0
  7827 ;;		On exit  : 0/0
  7828 ;;		Unchanged: 0/0
  7829 ;; Data sizes:     COMMON   BANK0   BANK1   BANK3   BANK2
  7830 ;;      Params:         2       0       0       0       0
  7831 ;;      Locals:         0       0       0       0       0
  7832 ;;      Temps:          0       0       0       0       0
  7833 ;;      Totals:         2       0       0       0       0
  7834 ;;Total ram usage:        2 bytes
  7835 ;; Hardware stack levels used: 2
  7836 ;; This function calls:
  7837 ;;		Nothing
  7838 ;; This function is called by:
  7839 ;;		_ISR
  7840 ;; This function uses a non-reentrant model
  7841 ;;
  7842                           
  7843     1EEE                     i1_UART_send_string:	
  7844                           ;psect for function i1_UART_send_string
  7845                           
  7846     1EEE                     i1l3050:	
  7847                           ;incstack = 0
  7848 ;; hardware stack exceeded
  7849                           ; Regs used in i1_UART_send_string: [wreg-fsr0h+btemp+1+pclath]
  7850                           
  7851     1EEE  2F07               	goto	i1l3056
  7852     1EEF                     i1l59:
  7853     1EEF  1683               	bsf	3,5	;RP0=1, select bank1
  7854     1EF0  1303               	bcf	3,6	;RP1=0, select bank1
  7855     1EF1  1C98               	btfss	24,1	;volatile
  7856     1EF2  2EF4               	goto	u459_21
  7857     1EF3  2EF5               	goto	u459_20
  7858     1EF4                     u459_21:
  7859     1EF4  2EEF               	goto	i1l59
  7860     1EF5                     u459_20:
  7861     1EF5                     i1l3052:
  7862     1EF5  0871               	movf	i1UART_send_string@str+1,w
  7863     1EF6  1283               	bcf	3,5	;RP0=0, select bank0
  7864     1EF7  1303               	bcf	3,6	;RP1=0, select bank0
  7865     1EF8  00FF               	movwf	btemp+1
  7866     1EF9  0870               	movf	i1UART_send_string@str,w
  7867     1EFA  0084               	movwf	4
  7868     1EFB  160A  158A  2000  160A  158A  	fcall	stringtab
  7869     1F00  0099               	movwf	25	;volatile
  7870     1F01                     i1l3054:
  7871     1F01  3001               	movlw	1
  7872     1F02  07F0               	addwf	i1UART_send_string@str,f
  7873     1F03  1803               	skipnc
  7874     1F04  0AF1               	incf	i1UART_send_string@str+1,f
  7875     1F05  3000               	movlw	0
  7876     1F06  07F1               	addwf	i1UART_send_string@str+1,f
  7877     1F07                     i1l3056:
  7878     1F07  0871               	movf	i1UART_send_string@str+1,w
  7879     1F08  1283               	bcf	3,5	;RP0=0, select bank0
  7880     1F09  1303               	bcf	3,6	;RP1=0, select bank0
  7881     1F0A  00FF               	movwf	btemp+1
  7882     1F0B  0870               	movf	i1UART_send_string@str,w
  7883     1F0C  0084               	movwf	4
  7884     1F0D  160A  158A  2000  160A  158A  	fcall	stringtab
  7885     1F12  3A00               	xorlw	0
  7886     1F13  1D03               	skipz
  7887     1F14  2F16               	goto	u460_21
  7888     1F15  2F17               	goto	u460_20
  7889     1F16                     u460_21:
  7890     1F16  2EEF               	goto	i1l59
  7891     1F17                     u460_20:
  7892     1F17                     i1l63:
  7893     1F17  0008               	return
  7894     1F18                     __end_ofi1_UART_send_string:
  7895     007E                     btemp	set	126	;btemp
  7896     007E                     wtemp0	set	126
  7897                           
  7898                           	psect	config
  7899                           
  7900                           ;Config register CONFIG @ 0x2007
  7901                           ;	Oscillator Selection bits
  7902                           ;	FOSC = HS, HS oscillator
  7903                           ;	Watchdog Timer Enable bit
  7904                           ;	WDTE = OFF, WDT disabled
  7905                           ;	Power-up Timer Enable bit
  7906                           ;	PWRTE = ON, PWRT enabled
  7907                           ;	Brown-out Reset Enable bit
  7908                           ;	BOREN = ON, BOR enabled
  7909                           ;	Low-Voltage (Single-Supply) In-Circuit Serial Programming Enable bit
  7910                           ;	LVP = OFF, RB3 is digital I/O, HV on MCLR must be used for programming
  7911                           ;	Data EEPROM Memory Code Protection bit
  7912                           ;	CPD = OFF, Data EEPROM code protection off
  7913                           ;	Flash Program Memory Write Enable bits
  7914                           ;	WRT = OFF, Write protection off; all program memory may be written to by EECON control
  7915                           ;	In-Circuit Debugger Mode bit
  7916                           ;	DEBUG = 0x1, unprogrammed default
  7917                           ;	Flash Program Memory Code Protection bit
  7918                           ;	CP = OFF, Code protection off
  7919     2007                     	org	8199
  7920     2007  3F72               	dw	16242
  7921                           
  7922                           	psect	text6_split_1
  7923     0A2C                     l2710:
  7924                           
  7925                           ;C:\Program Files\Microchip\xc8\v2.46\pic\sources\c99\common\doprnt.c: 657:     u.f = 1.
      +                          0;
  7926     0A2C  303F               	movlw	63
  7927     0A2D  1683               	bsf	3,5	;RP0=1, select bank1
  7928     0A2E  1303               	bcf	3,6	;RP1=0, select bank1
  7929     0A2F  00DB               	movwf	(efgtoa@u+3)^(0+128)
  7930     0A30  3080               	movlw	128
  7931     0A31  00DA               	movwf	(efgtoa@u+2)^(0+128)
  7932     0A32  3000               	movlw	0
  7933     0A33  00D9               	movwf	(efgtoa@u+1)^(0+128)
  7934     0A34  3000               	movlw	0
  7935     0A35  00D8               	movwf	efgtoa@u^(0+128)
  7936     0A36                     l2712:
  7937                           
  7938                           ;C:\Program Files\Microchip\xc8\v2.46\pic\sources\c99\common\doprnt.c: 658:     e = 0;
  7939     0A36  01BF               	clrf	efgtoa@e^(0+128)
  7940     0A37  01C0               	clrf	(efgtoa@e+1)^(0+128)
  7941     0A38                     l2714:
  7942                           
  7943                           ;C:\Program Files\Microchip\xc8\v2.46\pic\sources\c99\common\doprnt.c: 659:  if (!(g.f =
      +                          = 0.0)) {
  7944     0A38  0857               	movf	(efgtoa@g+3)^(0+128),w
  7945     0A39  1283               	bcf	3,5	;RP0=0, select bank0
  7946     0A3A  1303               	bcf	3,6	;RP1=0, select bank0
  7947     0A3B  00A3               	movwf	___fleq@ff1+3
  7948     0A3C  1683               	bsf	3,5	;RP0=1, select bank1
  7949     0A3D  1303               	bcf	3,6	;RP1=0, select bank1
  7950     0A3E  0856               	movf	(efgtoa@g+2)^(0+128),w
  7951     0A3F  1283               	bcf	3,5	;RP0=0, select bank0
  7952     0A40  1303               	bcf	3,6	;RP1=0, select bank0
  7953     0A41  00A2               	movwf	___fleq@ff1+2
  7954     0A42  1683               	bsf	3,5	;RP0=1, select bank1
  7955     0A43  1303               	bcf	3,6	;RP1=0, select bank1
  7956     0A44  0855               	movf	(efgtoa@g+1)^(0+128),w
  7957     0A45  1283               	bcf	3,5	;RP0=0, select bank0
  7958     0A46  1303               	bcf	3,6	;RP1=0, select bank0
  7959     0A47  00A1               	movwf	___fleq@ff1+1
  7960     0A48  1683               	bsf	3,5	;RP0=1, select bank1
  7961     0A49  1303               	bcf	3,6	;RP1=0, select bank1
  7962     0A4A  0854               	movf	efgtoa@g^(0+128),w
  7963     0A4B  1283               	bcf	3,5	;RP0=0, select bank0
  7964     0A4C  1303               	bcf	3,6	;RP1=0, select bank0
  7965     0A4D  00A0               	movwf	___fleq@ff1
  7966     0A4E  3000               	movlw	0
  7967     0A4F  00A7               	movwf	___fleq@ff2+3
  7968     0A50  3000               	movlw	0
  7969     0A51  00A6               	movwf	___fleq@ff2+2
  7970     0A52  3000               	movlw	0
  7971     0A53  00A5               	movwf	___fleq@ff2+1
  7972     0A54  3000               	movlw	0
  7973     0A55  00A4               	movwf	___fleq@ff2
  7974     0A56  120A  118A  27A8  120A  158A  	fcall	___fleq
  7975     0A5B  1803               	btfsc	3,0
  7976     0A5C  2A5E               	goto	u4091
  7977     0A5D  2A5F               	goto	u4090
  7978     0A5E                     u4091:
  7979     0A5E  2C94               	goto	l2740
  7980     0A5F                     u4090:
  7981     0A5F  2A70               	goto	l2720
  7982     0A60                     l2718:
  7983                           
  7984                           ;C:\Program Files\Microchip\xc8\v2.46\pic\sources\c99\common\doprnt.c: 661:    u = ou;
  7985     0A60  1683               	bsf	3,5	;RP0=1, select bank1
  7986     0A61  1303               	bcf	3,6	;RP1=0, select bank1
  7987     0A62  0846               	movf	(efgtoa@ou+3)^(0+128),w
  7988     0A63  00DB               	movwf	(efgtoa@u+3)^(0+128)
  7989     0A64  0845               	movf	(efgtoa@ou+2)^(0+128),w
  7990     0A65  00DA               	movwf	(efgtoa@u+2)^(0+128)
  7991     0A66  0844               	movf	(efgtoa@ou+1)^(0+128),w
  7992     0A67  00D9               	movwf	(efgtoa@u+1)^(0+128)
  7993     0A68  0843               	movf	efgtoa@ou^(0+128),w
  7994     0A69  00D8               	movwf	efgtoa@u^(0+128)
  7995                           
  7996                           ;C:\Program Files\Microchip\xc8\v2.46\pic\sources\c99\common\doprnt.c: 662:    ++e;
  7997     0A6A  3001               	movlw	1
  7998     0A6B  07BF               	addwf	efgtoa@e^(0+128),f
  7999     0A6C  1803               	skipnc
  8000     0A6D  0AC0               	incf	(efgtoa@e+1)^(0+128),f
  8001     0A6E  3000               	movlw	0
  8002     0A6F  07C0               	addwf	(efgtoa@e+1)^(0+128),f
  8003     0A70                     l2720:
  8004                           
  8005                           ;C:\Program Files\Microchip\xc8\v2.46\pic\sources\c99\common\doprnt.c: 660:   while ((la
      +                          bs((g).u-((ou.f = u.f*10.0,ou)).u) <= 1) || g.f > ou.f) {
  8006     0A70  3041               	movlw	65
  8007     0A71  1283               	bcf	3,5	;RP0=0, select bank0
  8008     0A72  1303               	bcf	3,6	;RP1=0, select bank0
  8009     0A73  00B1               	movwf	___flmul@b+3
  8010     0A74  3020               	movlw	32
  8011     0A75  00B0               	movwf	___flmul@b+2
  8012     0A76  3000               	movlw	0
  8013     0A77  00AF               	movwf	___flmul@b+1
  8014     0A78  3000               	movlw	0
  8015     0A79  00AE               	movwf	___flmul@b
  8016     0A7A  1683               	bsf	3,5	;RP0=1, select bank1
  8017     0A7B  1303               	bcf	3,6	;RP1=0, select bank1
  8018     0A7C  085B               	movf	(efgtoa@u+3)^(0+128),w
  8019     0A7D  1283               	bcf	3,5	;RP0=0, select bank0
  8020     0A7E  1303               	bcf	3,6	;RP1=0, select bank0
  8021     0A7F  00B5               	movwf	___flmul@a+3
  8022     0A80  1683               	bsf	3,5	;RP0=1, select bank1
  8023     0A81  1303               	bcf	3,6	;RP1=0, select bank1
  8024     0A82  085A               	movf	(efgtoa@u+2)^(0+128),w
  8025     0A83  1283               	bcf	3,5	;RP0=0, select bank0
  8026     0A84  1303               	bcf	3,6	;RP1=0, select bank0
  8027     0A85  00B4               	movwf	___flmul@a+2
  8028     0A86  1683               	bsf	3,5	;RP0=1, select bank1
  8029     0A87  1303               	bcf	3,6	;RP1=0, select bank1
  8030     0A88  0859               	movf	(efgtoa@u+1)^(0+128),w
  8031     0A89  1283               	bcf	3,5	;RP0=0, select bank0
  8032     0A8A  1303               	bcf	3,6	;RP1=0, select bank0
  8033     0A8B  00B3               	movwf	___flmul@a+1
  8034     0A8C  1683               	bsf	3,5	;RP0=1, select bank1
  8035     0A8D  1303               	bcf	3,6	;RP1=0, select bank1
  8036     0A8E  0858               	movf	efgtoa@u^(0+128),w
  8037     0A8F  1283               	bcf	3,5	;RP0=0, select bank0
  8038     0A90  1303               	bcf	3,6	;RP1=0, select bank0
  8039     0A91  00B2               	movwf	___flmul@a
  8040     0A92  120A  158A  24BB  120A  158A  	fcall	___flmul
  8041     0A97  1283               	bcf	3,5	;RP0=0, select bank0
  8042     0A98  1303               	bcf	3,6	;RP1=0, select bank0
  8043     0A99  0831               	movf	?___flmul+3,w
  8044     0A9A  1683               	bsf	3,5	;RP0=1, select bank1
  8045     0A9B  1303               	bcf	3,6	;RP1=0, select bank1
  8046     0A9C  00C6               	movwf	(efgtoa@ou+3)^(0+128)
  8047     0A9D  1283               	bcf	3,5	;RP0=0, select bank0
  8048     0A9E  1303               	bcf	3,6	;RP1=0, select bank0
  8049     0A9F  0830               	movf	?___flmul+2,w
  8050     0AA0  1683               	bsf	3,5	;RP0=1, select bank1
  8051     0AA1  1303               	bcf	3,6	;RP1=0, select bank1
  8052     0AA2  00C5               	movwf	(efgtoa@ou+2)^(0+128)
  8053     0AA3  1283               	bcf	3,5	;RP0=0, select bank0
  8054     0AA4  1303               	bcf	3,6	;RP1=0, select bank0
  8055     0AA5  082F               	movf	?___flmul+1,w
  8056     0AA6  1683               	bsf	3,5	;RP0=1, select bank1
  8057     0AA7  1303               	bcf	3,6	;RP1=0, select bank1
  8058     0AA8  00C4               	movwf	(efgtoa@ou+1)^(0+128)
  8059     0AA9  1283               	bcf	3,5	;RP0=0, select bank0
  8060     0AAA  1303               	bcf	3,6	;RP1=0, select bank0
  8061     0AAB  082E               	movf	?___flmul,w
  8062     0AAC  1683               	bsf	3,5	;RP0=1, select bank1
  8063     0AAD  1303               	bcf	3,6	;RP1=0, select bank1
  8064     0AAE  00C3               	movwf	efgtoa@ou^(0+128)
  8065     0AAF                     l2722:
  8066     0AAF  0854               	movf	efgtoa@g^(0+128),w
  8067     0AB0  1283               	bcf	3,5	;RP0=0, select bank0
  8068     0AB1  1303               	bcf	3,6	;RP1=0, select bank0
  8069     0AB2  00EC               	movwf	??_efgtoa
  8070     0AB3  1683               	bsf	3,5	;RP0=1, select bank1
  8071     0AB4  1303               	bcf	3,6	;RP1=0, select bank1
  8072     0AB5  0855               	movf	(efgtoa@g+1)^(0+128),w
  8073     0AB6  1283               	bcf	3,5	;RP0=0, select bank0
  8074     0AB7  1303               	bcf	3,6	;RP1=0, select bank0
  8075     0AB8  00ED               	movwf	??_efgtoa+1
  8076     0AB9  1683               	bsf	3,5	;RP0=1, select bank1
  8077     0ABA  1303               	bcf	3,6	;RP1=0, select bank1
  8078     0ABB  0856               	movf	(efgtoa@g+2)^(0+128),w
  8079     0ABC  1283               	bcf	3,5	;RP0=0, select bank0
  8080     0ABD  1303               	bcf	3,6	;RP1=0, select bank0
  8081     0ABE  00EE               	movwf	??_efgtoa+2
  8082     0ABF  1683               	bsf	3,5	;RP0=1, select bank1
  8083     0AC0  1303               	bcf	3,6	;RP1=0, select bank1
  8084     0AC1  0857               	movf	(efgtoa@g+3)^(0+128),w
  8085     0AC2  1283               	bcf	3,5	;RP0=0, select bank0
  8086     0AC3  1303               	bcf	3,6	;RP1=0, select bank0
  8087     0AC4  00EF               	movwf	??_efgtoa+3
  8088     0AC5  1683               	bsf	3,5	;RP0=1, select bank1
  8089     0AC6  1303               	bcf	3,6	;RP1=0, select bank1
  8090     0AC7  0843               	movf	efgtoa@ou^(0+128),w
  8091     0AC8  1283               	bcf	3,5	;RP0=0, select bank0
  8092     0AC9  1303               	bcf	3,6	;RP1=0, select bank0
  8093     0ACA  02EC               	subwf	??_efgtoa,f
  8094     0ACB  1683               	bsf	3,5	;RP0=1, select bank1
  8095     0ACC  1303               	bcf	3,6	;RP1=0, select bank1
  8096     0ACD  0844               	movf	(efgtoa@ou+1)^(0+128),w
  8097     0ACE  1C03               	skipc
  8098     0ACF  0F44               	incfsz	(efgtoa@ou+1)^(0+128),w
  8099     0AD0  2AD2               	goto	u4101
  8100     0AD1  2AD5               	goto	u4102
  8101     0AD2                     u4101:
  8102     0AD2  1283               	bcf	3,5	;RP0=0, select bank0
  8103     0AD3  1303               	bcf	3,6	;RP1=0, select bank0
  8104     0AD4  02ED               	subwf	??_efgtoa+1,f
  8105     0AD5                     u4102:
  8106     0AD5  1683               	bsf	3,5	;RP0=1, select bank1
  8107     0AD6  1303               	bcf	3,6	;RP1=0, select bank1
  8108     0AD7  0845               	movf	(efgtoa@ou+2)^(0+128),w
  8109     0AD8  1C03               	skipc
  8110     0AD9  0F45               	incfsz	(efgtoa@ou+2)^(0+128),w
  8111     0ADA  2ADC               	goto	u4103
  8112     0ADB  2ADF               	goto	u4104
  8113     0ADC                     u4103:
  8114     0ADC  1283               	bcf	3,5	;RP0=0, select bank0
  8115     0ADD  1303               	bcf	3,6	;RP1=0, select bank0
  8116     0ADE  02EE               	subwf	??_efgtoa+2,f
  8117     0ADF                     u4104:
  8118     0ADF  1683               	bsf	3,5	;RP0=1, select bank1
  8119     0AE0  1303               	bcf	3,6	;RP1=0, select bank1
  8120     0AE1  0846               	movf	(efgtoa@ou+3)^(0+128),w
  8121     0AE2  1C03               	skipc
  8122     0AE3  0F46               	incfsz	(efgtoa@ou+3)^(0+128),w
  8123     0AE4  2AE6               	goto	u4105
  8124     0AE5  2AE9               	goto	u4106
  8125     0AE6                     u4105:
  8126     0AE6  1283               	bcf	3,5	;RP0=0, select bank0
  8127     0AE7  1303               	bcf	3,6	;RP1=0, select bank0
  8128     0AE8  02EF               	subwf	??_efgtoa+3,f
  8129     0AE9                     u4106:
  8130     0AE9  1683               	bsf	3,5	;RP0=1, select bank1
  8131     0AEA  1303               	bcf	3,6	;RP1=0, select bank1
  8132     0AEB  1283               	bcf	3,5	;RP0=0, select bank0
  8133     0AEC  1303               	bcf	3,6	;RP1=0, select bank0
  8134     0AED  086F               	movf	??_efgtoa+3,w
  8135     0AEE  00A3               	movwf	labs@a+3
  8136     0AEF  086E               	movf	??_efgtoa+2,w
  8137     0AF0  00A2               	movwf	labs@a+2
  8138     0AF1  086D               	movf	??_efgtoa+1,w
  8139     0AF2  00A1               	movwf	labs@a+1
  8140     0AF3  086C               	movf	??_efgtoa,w
  8141     0AF4  00A0               	movwf	labs@a
  8142     0AF5  160A  158A  25BB  120A  158A  	fcall	_labs
  8143     0AFA  1283               	bcf	3,5	;RP0=0, select bank0
  8144     0AFB  1303               	bcf	3,6	;RP1=0, select bank0
  8145     0AFC  1BA3               	btfsc	?_labs+3,7
  8146     0AFD  2B0E               	goto	u4111
  8147     0AFE  0823               	movf	?_labs+3,w
  8148     0AFF  1D03               	btfss	3,2
  8149     0B00  2B0F               	goto	u4110
  8150     0B01  0822               	movf	?_labs+2,w
  8151     0B02  1D03               	btfss	3,2
  8152     0B03  2B0F               	goto	u4110
  8153     0B04  0821               	movf	?_labs+1,w
  8154     0B05  1D03               	btfss	3,2
  8155     0B06  2B0F               	goto	u4110
  8156     0B07  3002               	movlw	2
  8157     0B08  0220               	subwf	?_labs,w
  8158     0B09  1D03               	skipz
  8159     0B0A  2B0B               	goto	u4113
  8160     0B0B                     u4113:
  8161     0B0B  1C03               	btfss	3,0
  8162     0B0C  2B0E               	goto	u4111
  8163     0B0D  2B0F               	goto	u4110
  8164     0B0E                     u4111:
  8165     0B0E  2A60               	goto	l2718
  8166     0B0F                     u4110:
  8167     0B0F                     l2724:
  8168     0B0F  1683               	bsf	3,5	;RP0=1, select bank1
  8169     0B10  1303               	bcf	3,6	;RP1=0, select bank1
  8170     0B11  0846               	movf	(efgtoa@ou+3)^(0+128),w
  8171     0B12  1283               	bcf	3,5	;RP0=0, select bank0
  8172     0B13  1303               	bcf	3,6	;RP1=0, select bank0
  8173     0B14  00CB               	movwf	___flge@ff1+3
  8174     0B15  1683               	bsf	3,5	;RP0=1, select bank1
  8175     0B16  1303               	bcf	3,6	;RP1=0, select bank1
  8176     0B17  0845               	movf	(efgtoa@ou+2)^(0+128),w
  8177     0B18  1283               	bcf	3,5	;RP0=0, select bank0
  8178     0B19  1303               	bcf	3,6	;RP1=0, select bank0
  8179     0B1A  00CA               	movwf	___flge@ff1+2
  8180     0B1B  1683               	bsf	3,5	;RP0=1, select bank1
  8181     0B1C  1303               	bcf	3,6	;RP1=0, select bank1
  8182     0B1D  0844               	movf	(efgtoa@ou+1)^(0+128),w
  8183     0B1E  1283               	bcf	3,5	;RP0=0, select bank0
  8184     0B1F  1303               	bcf	3,6	;RP1=0, select bank0
  8185     0B20  00C9               	movwf	___flge@ff1+1
  8186     0B21  1683               	bsf	3,5	;RP0=1, select bank1
  8187     0B22  1303               	bcf	3,6	;RP1=0, select bank1
  8188     0B23  0843               	movf	efgtoa@ou^(0+128),w
  8189     0B24  1283               	bcf	3,5	;RP0=0, select bank0
  8190     0B25  1303               	bcf	3,6	;RP1=0, select bank0
  8191     0B26  00C8               	movwf	___flge@ff1
  8192     0B27  1683               	bsf	3,5	;RP0=1, select bank1
  8193     0B28  1303               	bcf	3,6	;RP1=0, select bank1
  8194     0B29  0857               	movf	(efgtoa@g+3)^(0+128),w
  8195     0B2A  1283               	bcf	3,5	;RP0=0, select bank0
  8196     0B2B  1303               	bcf	3,6	;RP1=0, select bank0
  8197     0B2C  00CF               	movwf	___flge@ff2+3
  8198     0B2D  1683               	bsf	3,5	;RP0=1, select bank1
  8199     0B2E  1303               	bcf	3,6	;RP1=0, select bank1
  8200     0B2F  0856               	movf	(efgtoa@g+2)^(0+128),w
  8201     0B30  1283               	bcf	3,5	;RP0=0, select bank0
  8202     0B31  1303               	bcf	3,6	;RP1=0, select bank0
  8203     0B32  00CE               	movwf	___flge@ff2+2
  8204     0B33  1683               	bsf	3,5	;RP0=1, select bank1
  8205     0B34  1303               	bcf	3,6	;RP1=0, select bank1
  8206     0B35  0855               	movf	(efgtoa@g+1)^(0+128),w
  8207     0B36  1283               	bcf	3,5	;RP0=0, select bank0
  8208     0B37  1303               	bcf	3,6	;RP1=0, select bank0
  8209     0B38  00CD               	movwf	___flge@ff2+1
  8210     0B39  1683               	bsf	3,5	;RP0=1, select bank1
  8211     0B3A  1303               	bcf	3,6	;RP1=0, select bank1
  8212     0B3B  0854               	movf	efgtoa@g^(0+128),w
  8213     0B3C  1283               	bcf	3,5	;RP0=0, select bank0
  8214     0B3D  1303               	bcf	3,6	;RP1=0, select bank0
  8215     0B3E  00CC               	movwf	___flge@ff2
  8216     0B3F  160A  118A  2124  120A  158A  	fcall	___flge
  8217     0B44  1C03               	btfss	3,0
  8218     0B45  2B47               	goto	u4121
  8219     0B46  2B48               	goto	u4120
  8220     0B47                     u4121:
  8221     0B47  2A60               	goto	l2718
  8222     0B48                     u4120:
  8223     0B48                     l2726:
  8224                           
  8225                           ;C:\Program Files\Microchip\xc8\v2.46\pic\sources\c99\common\doprnt.c: 664:   if ((labs(
      +                          (g).u-(u).u) <= 1)) {
  8226     0B48  1683               	bsf	3,5	;RP0=1, select bank1
  8227     0B49  1303               	bcf	3,6	;RP1=0, select bank1
  8228     0B4A  0854               	movf	efgtoa@g^(0+128),w
  8229     0B4B  1283               	bcf	3,5	;RP0=0, select bank0
  8230     0B4C  1303               	bcf	3,6	;RP1=0, select bank0
  8231     0B4D  00EC               	movwf	??_efgtoa
  8232     0B4E  1683               	bsf	3,5	;RP0=1, select bank1
  8233     0B4F  1303               	bcf	3,6	;RP1=0, select bank1
  8234     0B50  0855               	movf	(efgtoa@g+1)^(0+128),w
  8235     0B51  1283               	bcf	3,5	;RP0=0, select bank0
  8236     0B52  1303               	bcf	3,6	;RP1=0, select bank0
  8237     0B53  00ED               	movwf	??_efgtoa+1
  8238     0B54  1683               	bsf	3,5	;RP0=1, select bank1
  8239     0B55  1303               	bcf	3,6	;RP1=0, select bank1
  8240     0B56  0856               	movf	(efgtoa@g+2)^(0+128),w
  8241     0B57  1283               	bcf	3,5	;RP0=0, select bank0
  8242     0B58  1303               	bcf	3,6	;RP1=0, select bank0
  8243     0B59  00EE               	movwf	??_efgtoa+2
  8244     0B5A  1683               	bsf	3,5	;RP0=1, select bank1
  8245     0B5B  1303               	bcf	3,6	;RP1=0, select bank1
  8246     0B5C  0857               	movf	(efgtoa@g+3)^(0+128),w
  8247     0B5D  1283               	bcf	3,5	;RP0=0, select bank0
  8248     0B5E  1303               	bcf	3,6	;RP1=0, select bank0
  8249     0B5F  00EF               	movwf	??_efgtoa+3
  8250     0B60  1683               	bsf	3,5	;RP0=1, select bank1
  8251     0B61  1303               	bcf	3,6	;RP1=0, select bank1
  8252     0B62  0858               	movf	efgtoa@u^(0+128),w
  8253     0B63  1283               	bcf	3,5	;RP0=0, select bank0
  8254     0B64  1303               	bcf	3,6	;RP1=0, select bank0
  8255     0B65  02EC               	subwf	??_efgtoa,f
  8256     0B66  1683               	bsf	3,5	;RP0=1, select bank1
  8257     0B67  1303               	bcf	3,6	;RP1=0, select bank1
  8258     0B68  0859               	movf	(efgtoa@u+1)^(0+128),w
  8259     0B69  1C03               	skipc
  8260     0B6A  0F59               	incfsz	(efgtoa@u+1)^(0+128),w
  8261     0B6B  2B6D               	goto	u4131
  8262     0B6C  2B70               	goto	u4132
  8263     0B6D                     u4131:
  8264     0B6D  1283               	bcf	3,5	;RP0=0, select bank0
  8265     0B6E  1303               	bcf	3,6	;RP1=0, select bank0
  8266     0B6F  02ED               	subwf	??_efgtoa+1,f
  8267     0B70                     u4132:
  8268     0B70  1683               	bsf	3,5	;RP0=1, select bank1
  8269     0B71  1303               	bcf	3,6	;RP1=0, select bank1
  8270     0B72  085A               	movf	(efgtoa@u+2)^(0+128),w
  8271     0B73  1C03               	skipc
  8272     0B74  0F5A               	incfsz	(efgtoa@u+2)^(0+128),w
  8273     0B75  2B77               	goto	u4133
  8274     0B76  2B7A               	goto	u4134
  8275     0B77                     u4133:
  8276     0B77  1283               	bcf	3,5	;RP0=0, select bank0
  8277     0B78  1303               	bcf	3,6	;RP1=0, select bank0
  8278     0B79  02EE               	subwf	??_efgtoa+2,f
  8279     0B7A                     u4134:
  8280     0B7A  1683               	bsf	3,5	;RP0=1, select bank1
  8281     0B7B  1303               	bcf	3,6	;RP1=0, select bank1
  8282     0B7C  085B               	movf	(efgtoa@u+3)^(0+128),w
  8283     0B7D  1C03               	skipc
  8284     0B7E  0F5B               	incfsz	(efgtoa@u+3)^(0+128),w
  8285     0B7F  2B81               	goto	u4135
  8286     0B80  2B84               	goto	u4136
  8287     0B81                     u4135:
  8288     0B81  1283               	bcf	3,5	;RP0=0, select bank0
  8289     0B82  1303               	bcf	3,6	;RP1=0, select bank0
  8290     0B83  02EF               	subwf	??_efgtoa+3,f
  8291     0B84                     u4136:
  8292     0B84  1683               	bsf	3,5	;RP0=1, select bank1
  8293     0B85  1303               	bcf	3,6	;RP1=0, select bank1
  8294     0B86  1283               	bcf	3,5	;RP0=0, select bank0
  8295     0B87  1303               	bcf	3,6	;RP1=0, select bank0
  8296     0B88  086F               	movf	??_efgtoa+3,w
  8297     0B89  00A3               	movwf	labs@a+3
  8298     0B8A  086E               	movf	??_efgtoa+2,w
  8299     0B8B  00A2               	movwf	labs@a+2
  8300     0B8C  086D               	movf	??_efgtoa+1,w
  8301     0B8D  00A1               	movwf	labs@a+1
  8302     0B8E  086C               	movf	??_efgtoa,w
  8303     0B8F  00A0               	movwf	labs@a
  8304     0B90  160A  158A  25BB  120A  158A  	fcall	_labs
  8305     0B95  1283               	bcf	3,5	;RP0=0, select bank0
  8306     0B96  1303               	bcf	3,6	;RP1=0, select bank0
  8307     0B97  1BA3               	btfsc	?_labs+3,7
  8308     0B98  2BAA               	goto	u4140
  8309     0B99  0823               	movf	?_labs+3,w
  8310     0B9A  1D03               	btfss	3,2
  8311     0B9B  2BA9               	goto	u4141
  8312     0B9C  0822               	movf	?_labs+2,w
  8313     0B9D  1D03               	btfss	3,2
  8314     0B9E  2BA9               	goto	u4141
  8315     0B9F  0821               	movf	?_labs+1,w
  8316     0BA0  1D03               	btfss	3,2
  8317     0BA1  2BA9               	goto	u4141
  8318     0BA2  3002               	movlw	2
  8319     0BA3  0220               	subwf	?_labs,w
  8320     0BA4  1D03               	skipz
  8321     0BA5  2BA6               	goto	u4143
  8322     0BA6                     u4143:
  8323     0BA6  1803               	btfsc	3,0
  8324     0BA7  2BA9               	goto	u4141
  8325     0BA8  2BAA               	goto	u4140
  8326     0BA9                     u4141:
  8327     0BA9  2C5B               	goto	l2738
  8328     0BAA                     u4140:
  8329     0BAA                     l2728:
  8330                           
  8331                           ;C:\Program Files\Microchip\xc8\v2.46\pic\sources\c99\common\doprnt.c: 665:    g = u;
  8332     0BAA  1683               	bsf	3,5	;RP0=1, select bank1
  8333     0BAB  1303               	bcf	3,6	;RP1=0, select bank1
  8334     0BAC  085B               	movf	(efgtoa@u+3)^(0+128),w
  8335     0BAD  00D7               	movwf	(efgtoa@g+3)^(0+128)
  8336     0BAE  085A               	movf	(efgtoa@u+2)^(0+128),w
  8337     0BAF  00D6               	movwf	(efgtoa@g+2)^(0+128)
  8338     0BB0  0859               	movf	(efgtoa@u+1)^(0+128),w
  8339     0BB1  00D5               	movwf	(efgtoa@g+1)^(0+128)
  8340     0BB2  0858               	movf	efgtoa@u^(0+128),w
  8341     0BB3  00D4               	movwf	efgtoa@g^(0+128)
  8342                           
  8343                           ;C:\Program Files\Microchip\xc8\v2.46\pic\sources\c99\common\doprnt.c: 666:   }
  8344     0BB4  2C94               	goto	l2740
  8345     0BB5                     l2730:
  8346                           
  8347                           ;C:\Program Files\Microchip\xc8\v2.46\pic\sources\c99\common\doprnt.c: 669:     u.f = u.
      +                          f/10.0;
  8348     0BB5  3041               	movlw	65
  8349     0BB6  1283               	bcf	3,5	;RP0=0, select bank0
  8350     0BB7  1303               	bcf	3,6	;RP1=0, select bank0
  8351     0BB8  00CB               	movwf	___fldiv@a+3
  8352     0BB9  3020               	movlw	32
  8353     0BBA  00CA               	movwf	___fldiv@a+2
  8354     0BBB  3000               	movlw	0
  8355     0BBC  00C9               	movwf	___fldiv@a+1
  8356     0BBD  3000               	movlw	0
  8357     0BBE  00C8               	movwf	___fldiv@a
  8358     0BBF  1683               	bsf	3,5	;RP0=1, select bank1
  8359     0BC0  1303               	bcf	3,6	;RP1=0, select bank1
  8360     0BC1  085B               	movf	(efgtoa@u+3)^(0+128),w
  8361     0BC2  1283               	bcf	3,5	;RP0=0, select bank0
  8362     0BC3  1303               	bcf	3,6	;RP1=0, select bank0
  8363     0BC4  00CF               	movwf	___fldiv@b+3
  8364     0BC5  1683               	bsf	3,5	;RP0=1, select bank1
  8365     0BC6  1303               	bcf	3,6	;RP1=0, select bank1
  8366     0BC7  085A               	movf	(efgtoa@u+2)^(0+128),w
  8367     0BC8  1283               	bcf	3,5	;RP0=0, select bank0
  8368     0BC9  1303               	bcf	3,6	;RP1=0, select bank0
  8369     0BCA  00CE               	movwf	___fldiv@b+2
  8370     0BCB  1683               	bsf	3,5	;RP0=1, select bank1
  8371     0BCC  1303               	bcf	3,6	;RP1=0, select bank1
  8372     0BCD  0859               	movf	(efgtoa@u+1)^(0+128),w
  8373     0BCE  1283               	bcf	3,5	;RP0=0, select bank0
  8374     0BCF  1303               	bcf	3,6	;RP1=0, select bank0
  8375     0BD0  00CD               	movwf	___fldiv@b+1
  8376     0BD1  1683               	bsf	3,5	;RP0=1, select bank1
  8377     0BD2  1303               	bcf	3,6	;RP1=0, select bank1
  8378     0BD3  0858               	movf	efgtoa@u^(0+128),w
  8379     0BD4  1283               	bcf	3,5	;RP0=0, select bank0
  8380     0BD5  1303               	bcf	3,6	;RP1=0, select bank0
  8381     0BD6  00CC               	movwf	___fldiv@b
  8382     0BD7  120A  118A  25D9  120A  158A  	fcall	___fldiv
  8383     0BDC  1283               	bcf	3,5	;RP0=0, select bank0
  8384     0BDD  1303               	bcf	3,6	;RP1=0, select bank0
  8385     0BDE  084B               	movf	?___fldiv+3,w
  8386     0BDF  1683               	bsf	3,5	;RP0=1, select bank1
  8387     0BE0  1303               	bcf	3,6	;RP1=0, select bank1
  8388     0BE1  00DB               	movwf	(efgtoa@u+3)^(0+128)
  8389     0BE2  1283               	bcf	3,5	;RP0=0, select bank0
  8390     0BE3  1303               	bcf	3,6	;RP1=0, select bank0
  8391     0BE4  084A               	movf	?___fldiv+2,w
  8392     0BE5  1683               	bsf	3,5	;RP0=1, select bank1
  8393     0BE6  1303               	bcf	3,6	;RP1=0, select bank1
  8394     0BE7  00DA               	movwf	(efgtoa@u+2)^(0+128)
  8395     0BE8  1283               	bcf	3,5	;RP0=0, select bank0
  8396     0BE9  1303               	bcf	3,6	;RP1=0, select bank0
  8397     0BEA  0849               	movf	?___fldiv+1,w
  8398     0BEB  1683               	bsf	3,5	;RP0=1, select bank1
  8399     0BEC  1303               	bcf	3,6	;RP1=0, select bank1
  8400     0BED  00D9               	movwf	(efgtoa@u+1)^(0+128)
  8401     0BEE  1283               	bcf	3,5	;RP0=0, select bank0
  8402     0BEF  1303               	bcf	3,6	;RP1=0, select bank0
  8403     0BF0  0848               	movf	?___fldiv,w
  8404     0BF1  1683               	bsf	3,5	;RP0=1, select bank1
  8405     0BF2  1303               	bcf	3,6	;RP1=0, select bank1
  8406     0BF3  00D8               	movwf	efgtoa@u^(0+128)
  8407     0BF4                     l2732:
  8408                           
  8409                           ;C:\Program Files\Microchip\xc8\v2.46\pic\sources\c99\common\doprnt.c: 670:     --e;
  8410     0BF4  30FF               	movlw	255
  8411     0BF5  07BF               	addwf	efgtoa@e^(0+128),f
  8412     0BF6  1803               	skipnc
  8413     0BF7  0AC0               	incf	(efgtoa@e+1)^(0+128),f
  8414     0BF8  30FF               	movlw	255
  8415     0BF9  07C0               	addwf	(efgtoa@e+1)^(0+128),f
  8416     0BFA                     l2734:
  8417                           
  8418                           ;C:\Program Files\Microchip\xc8\v2.46\pic\sources\c99\common\doprnt.c: 671:     if ((lab
      +                          s((g).u-(u).u) <= 1)) {
  8419     0BFA  0854               	movf	efgtoa@g^(0+128),w
  8420     0BFB  1283               	bcf	3,5	;RP0=0, select bank0
  8421     0BFC  1303               	bcf	3,6	;RP1=0, select bank0
  8422     0BFD  00EC               	movwf	??_efgtoa
  8423     0BFE  1683               	bsf	3,5	;RP0=1, select bank1
  8424     0BFF  1303               	bcf	3,6	;RP1=0, select bank1
  8425     0C00  0855               	movf	(efgtoa@g+1)^(0+128),w
  8426     0C01  1283               	bcf	3,5	;RP0=0, select bank0
  8427     0C02  1303               	bcf	3,6	;RP1=0, select bank0
  8428     0C03  00ED               	movwf	??_efgtoa+1
  8429     0C04  1683               	bsf	3,5	;RP0=1, select bank1
  8430     0C05  1303               	bcf	3,6	;RP1=0, select bank1
  8431     0C06  0856               	movf	(efgtoa@g+2)^(0+128),w
  8432     0C07  1283               	bcf	3,5	;RP0=0, select bank0
  8433     0C08  1303               	bcf	3,6	;RP1=0, select bank0
  8434     0C09  00EE               	movwf	??_efgtoa+2
  8435     0C0A  1683               	bsf	3,5	;RP0=1, select bank1
  8436     0C0B  1303               	bcf	3,6	;RP1=0, select bank1
  8437     0C0C  0857               	movf	(efgtoa@g+3)^(0+128),w
  8438     0C0D  1283               	bcf	3,5	;RP0=0, select bank0
  8439     0C0E  1303               	bcf	3,6	;RP1=0, select bank0
  8440     0C0F  00EF               	movwf	??_efgtoa+3
  8441     0C10  1683               	bsf	3,5	;RP0=1, select bank1
  8442     0C11  1303               	bcf	3,6	;RP1=0, select bank1
  8443     0C12  0858               	movf	efgtoa@u^(0+128),w
  8444     0C13  1283               	bcf	3,5	;RP0=0, select bank0
  8445     0C14  1303               	bcf	3,6	;RP1=0, select bank0
  8446     0C15  02EC               	subwf	??_efgtoa,f
  8447     0C16  1683               	bsf	3,5	;RP0=1, select bank1
  8448     0C17  1303               	bcf	3,6	;RP1=0, select bank1
  8449     0C18  0859               	movf	(efgtoa@u+1)^(0+128),w
  8450     0C19  1C03               	skipc
  8451     0C1A  0F59               	incfsz	(efgtoa@u+1)^(0+128),w
  8452     0C1B  2C1D               	goto	u4151
  8453     0C1C  2C20               	goto	u4152
  8454     0C1D                     u4151:
  8455     0C1D  1283               	bcf	3,5	;RP0=0, select bank0
  8456     0C1E  1303               	bcf	3,6	;RP1=0, select bank0
  8457     0C1F  02ED               	subwf	??_efgtoa+1,f
  8458     0C20                     u4152:
  8459     0C20  1683               	bsf	3,5	;RP0=1, select bank1
  8460     0C21  1303               	bcf	3,6	;RP1=0, select bank1
  8461     0C22  085A               	movf	(efgtoa@u+2)^(0+128),w
  8462     0C23  1C03               	skipc
  8463     0C24  0F5A               	incfsz	(efgtoa@u+2)^(0+128),w
  8464     0C25  2C27               	goto	u4153
  8465     0C26  2C2A               	goto	u4154
  8466     0C27                     u4153:
  8467     0C27  1283               	bcf	3,5	;RP0=0, select bank0
  8468     0C28  1303               	bcf	3,6	;RP1=0, select bank0
  8469     0C29  02EE               	subwf	??_efgtoa+2,f
  8470     0C2A                     u4154:
  8471     0C2A  1683               	bsf	3,5	;RP0=1, select bank1
  8472     0C2B  1303               	bcf	3,6	;RP1=0, select bank1
  8473     0C2C  085B               	movf	(efgtoa@u+3)^(0+128),w
  8474     0C2D  1C03               	skipc
  8475     0C2E  0F5B               	incfsz	(efgtoa@u+3)^(0+128),w
  8476     0C2F  2C31               	goto	u4155
  8477     0C30  2C34               	goto	u4156
  8478     0C31                     u4155:
  8479     0C31  1283               	bcf	3,5	;RP0=0, select bank0
  8480     0C32  1303               	bcf	3,6	;RP1=0, select bank0
  8481     0C33  02EF               	subwf	??_efgtoa+3,f
  8482     0C34                     u4156:
  8483     0C34  1683               	bsf	3,5	;RP0=1, select bank1
  8484     0C35  1303               	bcf	3,6	;RP1=0, select bank1
  8485     0C36  1283               	bcf	3,5	;RP0=0, select bank0
  8486     0C37  1303               	bcf	3,6	;RP1=0, select bank0
  8487     0C38  086F               	movf	??_efgtoa+3,w
  8488     0C39  00A3               	movwf	labs@a+3
  8489     0C3A  086E               	movf	??_efgtoa+2,w
  8490     0C3B  00A2               	movwf	labs@a+2
  8491     0C3C  086D               	movf	??_efgtoa+1,w
  8492     0C3D  00A1               	movwf	labs@a+1
  8493     0C3E  086C               	movf	??_efgtoa,w
  8494     0C3F  00A0               	movwf	labs@a
  8495     0C40  160A  158A  25BB  120A  158A  	fcall	_labs
  8496     0C45  1283               	bcf	3,5	;RP0=0, select bank0
  8497     0C46  1303               	bcf	3,6	;RP1=0, select bank0
  8498     0C47  1BA3               	btfsc	?_labs+3,7
  8499     0C48  2C5A               	goto	u4160
  8500     0C49  0823               	movf	?_labs+3,w
  8501     0C4A  1D03               	btfss	3,2
  8502     0C4B  2C59               	goto	u4161
  8503     0C4C  0822               	movf	?_labs+2,w
  8504     0C4D  1D03               	btfss	3,2
  8505     0C4E  2C59               	goto	u4161
  8506     0C4F  0821               	movf	?_labs+1,w
  8507     0C50  1D03               	btfss	3,2
  8508     0C51  2C59               	goto	u4161
  8509     0C52  3002               	movlw	2
  8510     0C53  0220               	subwf	?_labs,w
  8511     0C54  1D03               	skipz
  8512     0C55  2C56               	goto	u4163
  8513     0C56                     u4163:
  8514     0C56  1803               	btfsc	3,0
  8515     0C57  2C59               	goto	u4161
  8516     0C58  2C5A               	goto	u4160
  8517     0C59                     u4161:
  8518     0C59  2C5B               	goto	l2738
  8519     0C5A                     u4160:
  8520     0C5A  2BAA               	goto	l2728
  8521     0C5B                     l2738:
  8522                           
  8523                           ;C:\Program Files\Microchip\xc8\v2.46\pic\sources\c99\common\doprnt.c: 668:    while (g.
      +                          f < u.f) {
  8524     0C5B  1683               	bsf	3,5	;RP0=1, select bank1
  8525     0C5C  1303               	bcf	3,6	;RP1=0, select bank1
  8526     0C5D  0857               	movf	(efgtoa@g+3)^(0+128),w
  8527     0C5E  1283               	bcf	3,5	;RP0=0, select bank0
  8528     0C5F  1303               	bcf	3,6	;RP1=0, select bank0
  8529     0C60  00CB               	movwf	___flge@ff1+3
  8530     0C61  1683               	bsf	3,5	;RP0=1, select bank1
  8531     0C62  1303               	bcf	3,6	;RP1=0, select bank1
  8532     0C63  0856               	movf	(efgtoa@g+2)^(0+128),w
  8533     0C64  1283               	bcf	3,5	;RP0=0, select bank0
  8534     0C65  1303               	bcf	3,6	;RP1=0, select bank0
  8535     0C66  00CA               	movwf	___flge@ff1+2
  8536     0C67  1683               	bsf	3,5	;RP0=1, select bank1
  8537     0C68  1303               	bcf	3,6	;RP1=0, select bank1
  8538     0C69  0855               	movf	(efgtoa@g+1)^(0+128),w
  8539     0C6A  1283               	bcf	3,5	;RP0=0, select bank0
  8540     0C6B  1303               	bcf	3,6	;RP1=0, select bank0
  8541     0C6C  00C9               	movwf	___flge@ff1+1
  8542     0C6D  1683               	bsf	3,5	;RP0=1, select bank1
  8543     0C6E  1303               	bcf	3,6	;RP1=0, select bank1
  8544     0C6F  0854               	movf	efgtoa@g^(0+128),w
  8545     0C70  1283               	bcf	3,5	;RP0=0, select bank0
  8546     0C71  1303               	bcf	3,6	;RP1=0, select bank0
  8547     0C72  00C8               	movwf	___flge@ff1
  8548     0C73  1683               	bsf	3,5	;RP0=1, select bank1
  8549     0C74  1303               	bcf	3,6	;RP1=0, select bank1
  8550     0C75  085B               	movf	(efgtoa@u+3)^(0+128),w
  8551     0C76  1283               	bcf	3,5	;RP0=0, select bank0
  8552     0C77  1303               	bcf	3,6	;RP1=0, select bank0
  8553     0C78  00CF               	movwf	___flge@ff2+3
  8554     0C79  1683               	bsf	3,5	;RP0=1, select bank1
  8555     0C7A  1303               	bcf	3,6	;RP1=0, select bank1
  8556     0C7B  085A               	movf	(efgtoa@u+2)^(0+128),w
  8557     0C7C  1283               	bcf	3,5	;RP0=0, select bank0
  8558     0C7D  1303               	bcf	3,6	;RP1=0, select bank0
  8559     0C7E  00CE               	movwf	___flge@ff2+2
  8560     0C7F  1683               	bsf	3,5	;RP0=1, select bank1
  8561     0C80  1303               	bcf	3,6	;RP1=0, select bank1
  8562     0C81  0859               	movf	(efgtoa@u+1)^(0+128),w
  8563     0C82  1283               	bcf	3,5	;RP0=0, select bank0
  8564     0C83  1303               	bcf	3,6	;RP1=0, select bank0
  8565     0C84  00CD               	movwf	___flge@ff2+1
  8566     0C85  1683               	bsf	3,5	;RP0=1, select bank1
  8567     0C86  1303               	bcf	3,6	;RP1=0, select bank1
  8568     0C87  0858               	movf	efgtoa@u^(0+128),w
  8569     0C88  1283               	bcf	3,5	;RP0=0, select bank0
  8570     0C89  1303               	bcf	3,6	;RP1=0, select bank0
  8571     0C8A  00CC               	movwf	___flge@ff2
  8572     0C8B  160A  118A  2124  120A  158A  	fcall	___flge
  8573     0C90  1C03               	btfss	3,0
  8574     0C91  2C93               	goto	u4171
  8575     0C92  2C94               	goto	u4170
  8576     0C93                     u4171:
  8577     0C93  2BB5               	goto	l2730
  8578     0C94                     u4170:
  8579     0C94                     l2740:
  8580                           
  8581                           ;C:\Program Files\Microchip\xc8\v2.46\pic\sources\c99\common\doprnt.c: 683:  mode = c;
  8582     0C94  1683               	bsf	3,5	;RP0=1, select bank1
  8583     0C95  1303               	bcf	3,6	;RP1=0, select bank1
  8584     0C96  082E               	movf	efgtoa@c^(0+128),w
  8585     0C97  00B8               	movwf	efgtoa@mode^(0+128)
  8586                           
  8587                           ;C:\Program Files\Microchip\xc8\v2.46\pic\sources\c99\common\doprnt.c: 685:     nmode = 
      +                          mode;
  8588     0C98  0838               	movf	efgtoa@mode^(0+128),w
  8589     0C99  00B9               	movwf	efgtoa@nmode^(0+128)
  8590     0C9A                     l2742:
  8591                           
  8592                           ;C:\Program Files\Microchip\xc8\v2.46\pic\sources\c99\common\doprnt.c: 695:  {;C:\Progra
      +                          m Files\Microchip\xc8\v2.46\pic\sources\c99\common\doprnt.c: 696:         p = (prec < 0)
      +                           ? 6 : prec;
  8593     0C9A  1BFC               	btfsc	_prec+1,7
  8594     0C9B  2C9D               	goto	u4181
  8595     0C9C  2C9E               	goto	u4180
  8596     0C9D                     u4181:
  8597     0C9D  2CA3               	goto	l2746
  8598     0C9E                     u4180:
  8599     0C9E                     l2744:
  8600     0C9E  087C               	movf	_prec+1,w
  8601     0C9F  00B2               	movwf	(efgtoa@p+1)^(0+128)
  8602     0CA0  087B               	movf	_prec,w
  8603     0CA1  00B1               	movwf	efgtoa@p^(0+128)
  8604     0CA2  2CA7               	goto	l676
  8605     0CA3                     l2746:
  8606     0CA3  3006               	movlw	6
  8607     0CA4  00B1               	movwf	efgtoa@p^(0+128)
  8608     0CA5  3000               	movlw	0
  8609     0CA6  00B2               	movwf	(efgtoa@p^(0+128)+1)
  8610     0CA7                     l676:
  8611                           
  8612                           ;C:\Program Files\Microchip\xc8\v2.46\pic\sources\c99\common\doprnt.c: 697:     };C:\Pro
      +                          gram Files\Microchip\xc8\v2.46\pic\sources\c99\common\doprnt.c: 711:     m = p;
  8613     0CA7  0832               	movf	(efgtoa@p+1)^(0+128),w
  8614     0CA8  00BD               	movwf	(efgtoa@m+1)^(0+128)
  8615     0CA9  0831               	movf	efgtoa@p^(0+128),w
  8616     0CAA  00BC               	movwf	efgtoa@m^(0+128)
  8617                           
  8618                           ;C:\Program Files\Microchip\xc8\v2.46\pic\sources\c99\common\doprnt.c: 715:  {;C:\Progra
      +                          m Files\Microchip\xc8\v2.46\pic\sources\c99\common\doprnt.c: 716:         ++m;
  8619     0CAB  3001               	movlw	1
  8620     0CAC  07BC               	addwf	efgtoa@m^(0+128),f
  8621     0CAD  1803               	skipnc
  8622     0CAE  0ABD               	incf	(efgtoa@m+1)^(0+128),f
  8623     0CAF  3000               	movlw	0
  8624     0CB0  07BD               	addwf	(efgtoa@m+1)^(0+128),f
  8625     0CB1                     l2748:
  8626                           
  8627                           ;C:\Program Files\Microchip\xc8\v2.46\pic\sources\c99\common\doprnt.c: 717:     };C:\Pro
      +                          gram Files\Microchip\xc8\v2.46\pic\sources\c99\common\doprnt.c: 721:     if (nmode == 'f
      +                          ') {
  8628     0CB1  3066               	movlw	102
  8629     0CB2  0639               	xorwf	efgtoa@nmode^(0+128),w
  8630     0CB3  1D03               	btfss	3,2
  8631     0CB4  2CB8               	goto	u4191
  8632     0CB5  120A  118A  282D   	goto	u4190
  8633     0CB8                     u4191:
  8634     0CB8  120A  118A  2847   	goto	l2760
  8635                           
  8636                           	psect	text6_split_2
  8637     002D                     u4190:
  8638     002D                     l2750:
  8639                           
  8640                           ;C:\Program Files\Microchip\xc8\v2.46\pic\sources\c99\common\doprnt.c: 722:         if (
      +                          e < 0) {
  8641     002D  1FC0               	btfss	(efgtoa@e+1)^(0+128),7
  8642     002E  2830               	goto	u4201
  8643     002F  2831               	goto	u4200
  8644     0030                     u4201:
  8645     0030  283B               	goto	l2756
  8646     0031                     u4200:
  8647     0031                     l2752:
  8648                           
  8649                           ;C:\Program Files\Microchip\xc8\v2.46\pic\sources\c99\common\doprnt.c: 723:             
      +                          u.f = 1.0;
  8650     0031  303F               	movlw	63
  8651     0032  00DB               	movwf	(efgtoa@u+3)^(0+128)
  8652     0033  3080               	movlw	128
  8653     0034  00DA               	movwf	(efgtoa@u+2)^(0+128)
  8654     0035  3000               	movlw	0
  8655     0036  00D9               	movwf	(efgtoa@u+1)^(0+128)
  8656     0037  3000               	movlw	0
  8657     0038  00D8               	movwf	efgtoa@u^(0+128)
  8658     0039                     l2754:
  8659                           
  8660                           ;C:\Program Files\Microchip\xc8\v2.46\pic\sources\c99\common\doprnt.c: 724:             
      +                          e = 0;
  8661     0039  01BF               	clrf	efgtoa@e^(0+128)
  8662     003A  01C0               	clrf	(efgtoa@e+1)^(0+128)
  8663     003B                     l2756:
  8664                           
  8665                           ;C:\Program Files\Microchip\xc8\v2.46\pic\sources\c99\common\doprnt.c: 726:         if (
      +                          !(mode == 'g')) {
  8666     003B  3067               	movlw	103
  8667     003C  0638               	xorwf	efgtoa@mode^(0+128),w
  8668     003D  1903               	btfsc	3,2
  8669     003E  2840               	goto	u4211
  8670     003F  2841               	goto	u4210
  8671     0040                     u4211:
  8672     0040  2847               	goto	l2760
  8673     0041                     u4210:
  8674     0041                     l2758:
  8675                           
  8676                           ;C:\Program Files\Microchip\xc8\v2.46\pic\sources\c99\common\doprnt.c: 727:             
      +                          m += e;
  8677     0041  083F               	movf	efgtoa@e^(0+128),w
  8678     0042  07BC               	addwf	efgtoa@m^(0+128),f
  8679     0043  1803               	skipnc
  8680     0044  0ABD               	incf	(efgtoa@m+1)^(0+128),f
  8681     0045  0840               	movf	(efgtoa@e+1)^(0+128),w
  8682     0046  07BD               	addwf	(efgtoa@m+1)^(0+128),f
  8683     0047                     l2760:
  8684                           
  8685                           ;C:\Program Files\Microchip\xc8\v2.46\pic\sources\c99\common\doprnt.c: 733:     i = 0;
  8686     0047  01C7               	clrf	efgtoa@i^(0+128)
  8687     0048  01C8               	clrf	(efgtoa@i+1)^(0+128)
  8688     0049                     l2762:
  8689                           
  8690                           ;C:\Program Files\Microchip\xc8\v2.46\pic\sources\c99\common\doprnt.c: 734:     h = g.f;
  8691     0049  0857               	movf	(efgtoa@g+3)^(0+128),w
  8692     004A  00CC               	movwf	(efgtoa@h+3)^(0+128)
  8693     004B  0856               	movf	(efgtoa@g+2)^(0+128),w
  8694     004C  00CB               	movwf	(efgtoa@h+2)^(0+128)
  8695     004D  0855               	movf	(efgtoa@g+1)^(0+128),w
  8696     004E  00CA               	movwf	(efgtoa@h+1)^(0+128)
  8697     004F  0854               	movf	efgtoa@g^(0+128),w
  8698     0050  00C9               	movwf	efgtoa@h^(0+128)
  8699     0051                     l2764:
  8700                           
  8701                           ;C:\Program Files\Microchip\xc8\v2.46\pic\sources\c99\common\doprnt.c: 735:     ou = u;
  8702     0051  085B               	movf	(efgtoa@u+3)^(0+128),w
  8703     0052  00C6               	movwf	(efgtoa@ou+3)^(0+128)
  8704     0053  085A               	movf	(efgtoa@u+2)^(0+128),w
  8705     0054  00C5               	movwf	(efgtoa@ou+2)^(0+128)
  8706     0055  0859               	movf	(efgtoa@u+1)^(0+128),w
  8707     0056  00C4               	movwf	(efgtoa@ou+1)^(0+128)
  8708     0057  0858               	movf	efgtoa@u^(0+128),w
  8709     0058  00C3               	movwf	efgtoa@ou^(0+128)
  8710                           
  8711                           ;C:\Program Files\Microchip\xc8\v2.46\pic\sources\c99\common\doprnt.c: 736:     while (i
      +                           < m) {
  8712     0059  2994               	goto	l2770
  8713     005A                     l2766:
  8714                           
  8715                           ;C:\Program Files\Microchip\xc8\v2.46\pic\sources\c99\common\doprnt.c: 737:         l = 
      +                          floorf(h/u.f);
  8716     005A  1683               	bsf	3,5	;RP0=1, select bank1
  8717     005B  1303               	bcf	3,6	;RP1=0, select bank1
  8718     005C  085B               	movf	(efgtoa@u+3)^(0+128),w
  8719     005D  1283               	bcf	3,5	;RP0=0, select bank0
  8720     005E  1303               	bcf	3,6	;RP1=0, select bank0
  8721     005F  00CB               	movwf	___fldiv@a+3
  8722     0060  1683               	bsf	3,5	;RP0=1, select bank1
  8723     0061  1303               	bcf	3,6	;RP1=0, select bank1
  8724     0062  085A               	movf	(efgtoa@u+2)^(0+128),w
  8725     0063  1283               	bcf	3,5	;RP0=0, select bank0
  8726     0064  1303               	bcf	3,6	;RP1=0, select bank0
  8727     0065  00CA               	movwf	___fldiv@a+2
  8728     0066  1683               	bsf	3,5	;RP0=1, select bank1
  8729     0067  1303               	bcf	3,6	;RP1=0, select bank1
  8730     0068  0859               	movf	(efgtoa@u+1)^(0+128),w
  8731     0069  1283               	bcf	3,5	;RP0=0, select bank0
  8732     006A  1303               	bcf	3,6	;RP1=0, select bank0
  8733     006B  00C9               	movwf	___fldiv@a+1
  8734     006C  1683               	bsf	3,5	;RP0=1, select bank1
  8735     006D  1303               	bcf	3,6	;RP1=0, select bank1
  8736     006E  0858               	movf	efgtoa@u^(0+128),w
  8737     006F  1283               	bcf	3,5	;RP0=0, select bank0
  8738     0070  1303               	bcf	3,6	;RP1=0, select bank0
  8739     0071  00C8               	movwf	___fldiv@a
  8740     0072  1683               	bsf	3,5	;RP0=1, select bank1
  8741     0073  1303               	bcf	3,6	;RP1=0, select bank1
  8742     0074  084C               	movf	(efgtoa@h+3)^(0+128),w
  8743     0075  1283               	bcf	3,5	;RP0=0, select bank0
  8744     0076  1303               	bcf	3,6	;RP1=0, select bank0
  8745     0077  00CF               	movwf	___fldiv@b+3
  8746     0078  1683               	bsf	3,5	;RP0=1, select bank1
  8747     0079  1303               	bcf	3,6	;RP1=0, select bank1
  8748     007A  084B               	movf	(efgtoa@h+2)^(0+128),w
  8749     007B  1283               	bcf	3,5	;RP0=0, select bank0
  8750     007C  1303               	bcf	3,6	;RP1=0, select bank0
  8751     007D  00CE               	movwf	___fldiv@b+2
  8752     007E  1683               	bsf	3,5	;RP0=1, select bank1
  8753     007F  1303               	bcf	3,6	;RP1=0, select bank1
  8754     0080  084A               	movf	(efgtoa@h+1)^(0+128),w
  8755     0081  1283               	bcf	3,5	;RP0=0, select bank0
  8756     0082  1303               	bcf	3,6	;RP1=0, select bank0
  8757     0083  00CD               	movwf	___fldiv@b+1
  8758     0084  1683               	bsf	3,5	;RP0=1, select bank1
  8759     0085  1303               	bcf	3,6	;RP1=0, select bank1
  8760     0086  0849               	movf	efgtoa@h^(0+128),w
  8761     0087  1283               	bcf	3,5	;RP0=0, select bank0
  8762     0088  1303               	bcf	3,6	;RP1=0, select bank0
  8763     0089  00CC               	movwf	___fldiv@b
  8764     008A  120A  118A  25D9  120A  118A  	fcall	___fldiv
  8765     008F  1283               	bcf	3,5	;RP0=0, select bank0
  8766     0090  1303               	bcf	3,6	;RP1=0, select bank0
  8767     0091  084B               	movf	?___fldiv+3,w
  8768     0092  00E5               	movwf	floorf@x+3
  8769     0093  084A               	movf	?___fldiv+2,w
  8770     0094  00E4               	movwf	floorf@x+2
  8771     0095  0849               	movf	?___fldiv+1,w
  8772     0096  00E3               	movwf	floorf@x+1
  8773     0097  0848               	movf	?___fldiv,w
  8774     0098  00E2               	movwf	floorf@x
  8775     0099  120A  158A  2079  120A  118A  	fcall	_floorf
  8776     009E  1283               	bcf	3,5	;RP0=0, select bank0
  8777     009F  1303               	bcf	3,6	;RP1=0, select bank0
  8778     00A0  0865               	movf	?_floorf+3,w
  8779     00A1  1683               	bsf	3,5	;RP0=1, select bank1
  8780     00A2  1303               	bcf	3,6	;RP1=0, select bank1
  8781     00A3  00D0               	movwf	(efgtoa@l+3)^(0+128)
  8782     00A4  1283               	bcf	3,5	;RP0=0, select bank0
  8783     00A5  1303               	bcf	3,6	;RP1=0, select bank0
  8784     00A6  0864               	movf	?_floorf+2,w
  8785     00A7  1683               	bsf	3,5	;RP0=1, select bank1
  8786     00A8  1303               	bcf	3,6	;RP1=0, select bank1
  8787     00A9  00CF               	movwf	(efgtoa@l+2)^(0+128)
  8788     00AA  1283               	bcf	3,5	;RP0=0, select bank0
  8789     00AB  1303               	bcf	3,6	;RP1=0, select bank0
  8790     00AC  0863               	movf	?_floorf+1,w
  8791     00AD  1683               	bsf	3,5	;RP0=1, select bank1
  8792     00AE  1303               	bcf	3,6	;RP1=0, select bank1
  8793     00AF  00CE               	movwf	(efgtoa@l+1)^(0+128)
  8794     00B0  1283               	bcf	3,5	;RP0=0, select bank0
  8795     00B1  1303               	bcf	3,6	;RP1=0, select bank0
  8796     00B2  0862               	movf	?_floorf,w
  8797     00B3  1683               	bsf	3,5	;RP0=1, select bank1
  8798     00B4  1303               	bcf	3,6	;RP1=0, select bank1
  8799     00B5  00CD               	movwf	efgtoa@l^(0+128)
  8800                           
  8801                           ;C:\Program Files\Microchip\xc8\v2.46\pic\sources\c99\common\doprnt.c: 738:         d = 
      +                          (int)l;
  8802     00B6  0850               	movf	(efgtoa@l+3)^(0+128),w
  8803     00B7  1283               	bcf	3,5	;RP0=0, select bank0
  8804     00B8  1303               	bcf	3,6	;RP1=0, select bank0
  8805     00B9  00A3               	movwf	___fltol@f1+3
  8806     00BA  1683               	bsf	3,5	;RP0=1, select bank1
  8807     00BB  1303               	bcf	3,6	;RP1=0, select bank1
  8808     00BC  084F               	movf	(efgtoa@l+2)^(0+128),w
  8809     00BD  1283               	bcf	3,5	;RP0=0, select bank0
  8810     00BE  1303               	bcf	3,6	;RP1=0, select bank0
  8811     00BF  00A2               	movwf	___fltol@f1+2
  8812     00C0  1683               	bsf	3,5	;RP0=1, select bank1
  8813     00C1  1303               	bcf	3,6	;RP1=0, select bank1
  8814     00C2  084E               	movf	(efgtoa@l+1)^(0+128),w
  8815     00C3  1283               	bcf	3,5	;RP0=0, select bank0
  8816     00C4  1303               	bcf	3,6	;RP1=0, select bank0
  8817     00C5  00A1               	movwf	___fltol@f1+1
  8818     00C6  1683               	bsf	3,5	;RP0=1, select bank1
  8819     00C7  1303               	bcf	3,6	;RP1=0, select bank1
  8820     00C8  084D               	movf	efgtoa@l^(0+128),w
  8821     00C9  1283               	bcf	3,5	;RP0=0, select bank0
  8822     00CA  1303               	bcf	3,6	;RP1=0, select bank0
  8823     00CB  00A0               	movwf	___fltol@f1
  8824     00CC  120A  158A  2001  120A  118A  	fcall	___fltol
  8825     00D1  1283               	bcf	3,5	;RP0=0, select bank0
  8826     00D2  1303               	bcf	3,6	;RP1=0, select bank0
  8827     00D3  0821               	movf	?___fltol+1,w
  8828     00D4  1683               	bsf	3,5	;RP0=1, select bank1
  8829     00D5  1303               	bcf	3,6	;RP1=0, select bank1
  8830     00D6  00BB               	movwf	(efgtoa@d+1)^(0+128)
  8831     00D7  1283               	bcf	3,5	;RP0=0, select bank0
  8832     00D8  1303               	bcf	3,6	;RP1=0, select bank0
  8833     00D9  0820               	movf	?___fltol,w
  8834     00DA  1683               	bsf	3,5	;RP0=1, select bank1
  8835     00DB  1303               	bcf	3,6	;RP1=0, select bank1
  8836     00DC  00BA               	movwf	efgtoa@d^(0+128)
  8837                           
  8838                           ;C:\Program Files\Microchip\xc8\v2.46\pic\sources\c99\common\doprnt.c: 739:         h -=
      +                           l*u.f;
  8839     00DD  085B               	movf	(efgtoa@u+3)^(0+128),w
  8840     00DE  1283               	bcf	3,5	;RP0=0, select bank0
  8841     00DF  1303               	bcf	3,6	;RP1=0, select bank0
  8842     00E0  00B5               	movwf	___flmul@a+3
  8843     00E1  1683               	bsf	3,5	;RP0=1, select bank1
  8844     00E2  1303               	bcf	3,6	;RP1=0, select bank1
  8845     00E3  085A               	movf	(efgtoa@u+2)^(0+128),w
  8846     00E4  1283               	bcf	3,5	;RP0=0, select bank0
  8847     00E5  1303               	bcf	3,6	;RP1=0, select bank0
  8848     00E6  00B4               	movwf	___flmul@a+2
  8849     00E7  1683               	bsf	3,5	;RP0=1, select bank1
  8850     00E8  1303               	bcf	3,6	;RP1=0, select bank1
  8851     00E9  0859               	movf	(efgtoa@u+1)^(0+128),w
  8852     00EA  1283               	bcf	3,5	;RP0=0, select bank0
  8853     00EB  1303               	bcf	3,6	;RP1=0, select bank0
  8854     00EC  00B3               	movwf	___flmul@a+1
  8855     00ED  1683               	bsf	3,5	;RP0=1, select bank1
  8856     00EE  1303               	bcf	3,6	;RP1=0, select bank1
  8857     00EF  0858               	movf	efgtoa@u^(0+128),w
  8858     00F0  1283               	bcf	3,5	;RP0=0, select bank0
  8859     00F1  1303               	bcf	3,6	;RP1=0, select bank0
  8860     00F2  00B2               	movwf	___flmul@a
  8861     00F3  1683               	bsf	3,5	;RP0=1, select bank1
  8862     00F4  1303               	bcf	3,6	;RP1=0, select bank1
  8863     00F5  0850               	movf	(efgtoa@l+3)^(0+128),w
  8864     00F6  1283               	bcf	3,5	;RP0=0, select bank0
  8865     00F7  1303               	bcf	3,6	;RP1=0, select bank0
  8866     00F8  00B1               	movwf	___flmul@b+3
  8867     00F9  1683               	bsf	3,5	;RP0=1, select bank1
  8868     00FA  1303               	bcf	3,6	;RP1=0, select bank1
  8869     00FB  084F               	movf	(efgtoa@l+2)^(0+128),w
  8870     00FC  1283               	bcf	3,5	;RP0=0, select bank0
  8871     00FD  1303               	bcf	3,6	;RP1=0, select bank0
  8872     00FE  00B0               	movwf	___flmul@b+2
  8873     00FF  1683               	bsf	3,5	;RP0=1, select bank1
  8874     0100  1303               	bcf	3,6	;RP1=0, select bank1
  8875     0101  084E               	movf	(efgtoa@l+1)^(0+128),w
  8876     0102  1283               	bcf	3,5	;RP0=0, select bank0
  8877     0103  1303               	bcf	3,6	;RP1=0, select bank0
  8878     0104  00AF               	movwf	___flmul@b+1
  8879     0105  1683               	bsf	3,5	;RP0=1, select bank1
  8880     0106  1303               	bcf	3,6	;RP1=0, select bank1
  8881     0107  084D               	movf	efgtoa@l^(0+128),w
  8882     0108  1283               	bcf	3,5	;RP0=0, select bank0
  8883     0109  1303               	bcf	3,6	;RP1=0, select bank0
  8884     010A  00AE               	movwf	___flmul@b
  8885     010B  120A  158A  24BB  120A  118A  	fcall	___flmul
  8886     0110  1283               	bcf	3,5	;RP0=0, select bank0
  8887     0111  1303               	bcf	3,6	;RP1=0, select bank0
  8888     0112  0831               	movf	?___flmul+3,w
  8889     0113  00CB               	movwf	___flsub@a+3
  8890     0114  0830               	movf	?___flmul+2,w
  8891     0115  00CA               	movwf	___flsub@a+2
  8892     0116  082F               	movf	?___flmul+1,w
  8893     0117  00C9               	movwf	___flsub@a+1
  8894     0118  082E               	movf	?___flmul,w
  8895     0119  00C8               	movwf	___flsub@a
  8896     011A  1683               	bsf	3,5	;RP0=1, select bank1
  8897     011B  1303               	bcf	3,6	;RP1=0, select bank1
  8898     011C  084C               	movf	(efgtoa@h+3)^(0+128),w
  8899     011D  1283               	bcf	3,5	;RP0=0, select bank0
  8900     011E  1303               	bcf	3,6	;RP1=0, select bank0
  8901     011F  00CF               	movwf	___flsub@b+3
  8902     0120  1683               	bsf	3,5	;RP0=1, select bank1
  8903     0121  1303               	bcf	3,6	;RP1=0, select bank1
  8904     0122  084B               	movf	(efgtoa@h+2)^(0+128),w
  8905     0123  1283               	bcf	3,5	;RP0=0, select bank0
  8906     0124  1303               	bcf	3,6	;RP1=0, select bank0
  8907     0125  00CE               	movwf	___flsub@b+2
  8908     0126  1683               	bsf	3,5	;RP0=1, select bank1
  8909     0127  1303               	bcf	3,6	;RP1=0, select bank1
  8910     0128  084A               	movf	(efgtoa@h+1)^(0+128),w
  8911     0129  1283               	bcf	3,5	;RP0=0, select bank0
  8912     012A  1303               	bcf	3,6	;RP1=0, select bank0
  8913     012B  00CD               	movwf	___flsub@b+1
  8914     012C  1683               	bsf	3,5	;RP0=1, select bank1
  8915     012D  1303               	bcf	3,6	;RP1=0, select bank1
  8916     012E  0849               	movf	efgtoa@h^(0+128),w
  8917     012F  1283               	bcf	3,5	;RP0=0, select bank0
  8918     0130  1303               	bcf	3,6	;RP1=0, select bank0
  8919     0131  00CC               	movwf	___flsub@b
  8920     0132  160A  158A  2652  120A  118A  	fcall	___flsub
  8921     0137  1283               	bcf	3,5	;RP0=0, select bank0
  8922     0138  1303               	bcf	3,6	;RP1=0, select bank0
  8923     0139  084B               	movf	?___flsub+3,w
  8924     013A  1683               	bsf	3,5	;RP0=1, select bank1
  8925     013B  1303               	bcf	3,6	;RP1=0, select bank1
  8926     013C  00CC               	movwf	(efgtoa@h+3)^(0+128)
  8927     013D  1283               	bcf	3,5	;RP0=0, select bank0
  8928     013E  1303               	bcf	3,6	;RP1=0, select bank0
  8929     013F  084A               	movf	?___flsub+2,w
  8930     0140  1683               	bsf	3,5	;RP0=1, select bank1
  8931     0141  1303               	bcf	3,6	;RP1=0, select bank1
  8932     0142  00CB               	movwf	(efgtoa@h+2)^(0+128)
  8933     0143  1283               	bcf	3,5	;RP0=0, select bank0
  8934     0144  1303               	bcf	3,6	;RP1=0, select bank0
  8935     0145  0849               	movf	?___flsub+1,w
  8936     0146  1683               	bsf	3,5	;RP0=1, select bank1
  8937     0147  1303               	bcf	3,6	;RP1=0, select bank1
  8938     0148  00CA               	movwf	(efgtoa@h+1)^(0+128)
  8939     0149  1283               	bcf	3,5	;RP0=0, select bank0
  8940     014A  1303               	bcf	3,6	;RP1=0, select bank0
  8941     014B  0848               	movf	?___flsub,w
  8942     014C  1683               	bsf	3,5	;RP0=1, select bank1
  8943     014D  1303               	bcf	3,6	;RP1=0, select bank1
  8944     014E  00C9               	movwf	efgtoa@h^(0+128)
  8945                           
  8946                           ;C:\Program Files\Microchip\xc8\v2.46\pic\sources\c99\common\doprnt.c: 740:         u.f 
      +                          = u.f/10.0;
  8947     014F  3041               	movlw	65
  8948     0150  1283               	bcf	3,5	;RP0=0, select bank0
  8949     0151  1303               	bcf	3,6	;RP1=0, select bank0
  8950     0152  00CB               	movwf	___fldiv@a+3
  8951     0153  3020               	movlw	32
  8952     0154  00CA               	movwf	___fldiv@a+2
  8953     0155  3000               	movlw	0
  8954     0156  00C9               	movwf	___fldiv@a+1
  8955     0157  3000               	movlw	0
  8956     0158  00C8               	movwf	___fldiv@a
  8957     0159  1683               	bsf	3,5	;RP0=1, select bank1
  8958     015A  1303               	bcf	3,6	;RP1=0, select bank1
  8959     015B  085B               	movf	(efgtoa@u+3)^(0+128),w
  8960     015C  1283               	bcf	3,5	;RP0=0, select bank0
  8961     015D  1303               	bcf	3,6	;RP1=0, select bank0
  8962     015E  00CF               	movwf	___fldiv@b+3
  8963     015F  1683               	bsf	3,5	;RP0=1, select bank1
  8964     0160  1303               	bcf	3,6	;RP1=0, select bank1
  8965     0161  085A               	movf	(efgtoa@u+2)^(0+128),w
  8966     0162  1283               	bcf	3,5	;RP0=0, select bank0
  8967     0163  1303               	bcf	3,6	;RP1=0, select bank0
  8968     0164  00CE               	movwf	___fldiv@b+2
  8969     0165  1683               	bsf	3,5	;RP0=1, select bank1
  8970     0166  1303               	bcf	3,6	;RP1=0, select bank1
  8971     0167  0859               	movf	(efgtoa@u+1)^(0+128),w
  8972     0168  1283               	bcf	3,5	;RP0=0, select bank0
  8973     0169  1303               	bcf	3,6	;RP1=0, select bank0
  8974     016A  00CD               	movwf	___fldiv@b+1
  8975     016B  1683               	bsf	3,5	;RP0=1, select bank1
  8976     016C  1303               	bcf	3,6	;RP1=0, select bank1
  8977     016D  0858               	movf	efgtoa@u^(0+128),w
  8978     016E  1283               	bcf	3,5	;RP0=0, select bank0
  8979     016F  1303               	bcf	3,6	;RP1=0, select bank0
  8980     0170  00CC               	movwf	___fldiv@b
  8981     0171  120A  118A  25D9  120A  118A  	fcall	___fldiv
  8982     0176  1283               	bcf	3,5	;RP0=0, select bank0
  8983     0177  1303               	bcf	3,6	;RP1=0, select bank0
  8984     0178  084B               	movf	?___fldiv+3,w
  8985     0179  1683               	bsf	3,5	;RP0=1, select bank1
  8986     017A  1303               	bcf	3,6	;RP1=0, select bank1
  8987     017B  00DB               	movwf	(efgtoa@u+3)^(0+128)
  8988     017C  1283               	bcf	3,5	;RP0=0, select bank0
  8989     017D  1303               	bcf	3,6	;RP1=0, select bank0
  8990     017E  084A               	movf	?___fldiv+2,w
  8991     017F  1683               	bsf	3,5	;RP0=1, select bank1
  8992     0180  1303               	bcf	3,6	;RP1=0, select bank1
  8993     0181  00DA               	movwf	(efgtoa@u+2)^(0+128)
  8994     0182  1283               	bcf	3,5	;RP0=0, select bank0
  8995     0183  1303               	bcf	3,6	;RP1=0, select bank0
  8996     0184  0849               	movf	?___fldiv+1,w
  8997     0185  1683               	bsf	3,5	;RP0=1, select bank1
  8998     0186  1303               	bcf	3,6	;RP1=0, select bank1
  8999     0187  00D9               	movwf	(efgtoa@u+1)^(0+128)
  9000     0188  1283               	bcf	3,5	;RP0=0, select bank0
  9001     0189  1303               	bcf	3,6	;RP1=0, select bank0
  9002     018A  0848               	movf	?___fldiv,w
  9003     018B  1683               	bsf	3,5	;RP0=1, select bank1
  9004     018C  1303               	bcf	3,6	;RP1=0, select bank1
  9005     018D  00D8               	movwf	efgtoa@u^(0+128)
  9006     018E                     l2768:
  9007                           
  9008                           ;C:\Program Files\Microchip\xc8\v2.46\pic\sources\c99\common\doprnt.c: 741:         ++i;
  9009     018E  3001               	movlw	1
  9010     018F  07C7               	addwf	efgtoa@i^(0+128),f
  9011     0190  1803               	skipnc
  9012     0191  0AC8               	incf	(efgtoa@i+1)^(0+128),f
  9013     0192  3000               	movlw	0
  9014     0193  07C8               	addwf	(efgtoa@i+1)^(0+128),f
  9015     0194                     l2770:
  9016                           
  9017                           ;C:\Program Files\Microchip\xc8\v2.46\pic\sources\c99\common\doprnt.c: 736:     while (i
      +                           < m) {
  9018     0194  0848               	movf	(efgtoa@i+1)^(0+128),w
  9019     0195  3A80               	xorlw	128
  9020     0196  1283               	bcf	3,5	;RP0=0, select bank0
  9021     0197  1303               	bcf	3,6	;RP1=0, select bank0
  9022     0198  00EC               	movwf	??_efgtoa
  9023     0199  1683               	bsf	3,5	;RP0=1, select bank1
  9024     019A  1303               	bcf	3,6	;RP1=0, select bank1
  9025     019B  083D               	movf	(efgtoa@m+1)^(0+128),w
  9026     019C  3A80               	xorlw	128
  9027     019D  1283               	bcf	3,5	;RP0=0, select bank0
  9028     019E  1303               	bcf	3,6	;RP1=0, select bank0
  9029     019F  026C               	subwf	??_efgtoa,w
  9030     01A0  1D03               	skipz
  9031     01A1  29A6               	goto	u4225
  9032     01A2  1683               	bsf	3,5	;RP0=1, select bank1
  9033     01A3  1303               	bcf	3,6	;RP1=0, select bank1
  9034     01A4  083C               	movf	efgtoa@m^(0+128),w
  9035     01A5  0247               	subwf	efgtoa@i^(0+128),w
  9036     01A6                     u4225:
  9037     01A6  1C03               	skipc
  9038     01A7  29A9               	goto	u4221
  9039     01A8  29AA               	goto	u4220
  9040     01A9                     u4221:
  9041     01A9  285A               	goto	l2766
  9042     01AA                     u4220:
  9043     01AA                     l2772:
  9044                           
  9045                           ;C:\Program Files\Microchip\xc8\v2.46\pic\sources\c99\common\doprnt.c: 745:     l = u.f*
      +                          5.0;
  9046     01AA  3040               	movlw	64
  9047     01AB  1283               	bcf	3,5	;RP0=0, select bank0
  9048     01AC  1303               	bcf	3,6	;RP1=0, select bank0
  9049     01AD  00B1               	movwf	___flmul@b+3
  9050     01AE  30A0               	movlw	160
  9051     01AF  00B0               	movwf	___flmul@b+2
  9052     01B0  3000               	movlw	0
  9053     01B1  00AF               	movwf	___flmul@b+1
  9054     01B2  3000               	movlw	0
  9055     01B3  00AE               	movwf	___flmul@b
  9056     01B4  1683               	bsf	3,5	;RP0=1, select bank1
  9057     01B5  1303               	bcf	3,6	;RP1=0, select bank1
  9058     01B6  085B               	movf	(efgtoa@u+3)^(0+128),w
  9059     01B7  1283               	bcf	3,5	;RP0=0, select bank0
  9060     01B8  1303               	bcf	3,6	;RP1=0, select bank0
  9061     01B9  00B5               	movwf	___flmul@a+3
  9062     01BA  1683               	bsf	3,5	;RP0=1, select bank1
  9063     01BB  1303               	bcf	3,6	;RP1=0, select bank1
  9064     01BC  085A               	movf	(efgtoa@u+2)^(0+128),w
  9065     01BD  1283               	bcf	3,5	;RP0=0, select bank0
  9066     01BE  1303               	bcf	3,6	;RP1=0, select bank0
  9067     01BF  00B4               	movwf	___flmul@a+2
  9068     01C0  1683               	bsf	3,5	;RP0=1, select bank1
  9069     01C1  1303               	bcf	3,6	;RP1=0, select bank1
  9070     01C2  0859               	movf	(efgtoa@u+1)^(0+128),w
  9071     01C3  1283               	bcf	3,5	;RP0=0, select bank0
  9072     01C4  1303               	bcf	3,6	;RP1=0, select bank0
  9073     01C5  00B3               	movwf	___flmul@a+1
  9074     01C6  1683               	bsf	3,5	;RP0=1, select bank1
  9075     01C7  1303               	bcf	3,6	;RP1=0, select bank1
  9076     01C8  0858               	movf	efgtoa@u^(0+128),w
  9077     01C9  1283               	bcf	3,5	;RP0=0, select bank0
  9078     01CA  1303               	bcf	3,6	;RP1=0, select bank0
  9079     01CB  00B2               	movwf	___flmul@a
  9080     01CC  120A  158A  24BB  120A  118A  	fcall	___flmul
  9081     01D1  1283               	bcf	3,5	;RP0=0, select bank0
  9082     01D2  1303               	bcf	3,6	;RP1=0, select bank0
  9083     01D3  0831               	movf	?___flmul+3,w
  9084     01D4  1683               	bsf	3,5	;RP0=1, select bank1
  9085     01D5  1303               	bcf	3,6	;RP1=0, select bank1
  9086     01D6  00D0               	movwf	(efgtoa@l+3)^(0+128)
  9087     01D7  1283               	bcf	3,5	;RP0=0, select bank0
  9088     01D8  1303               	bcf	3,6	;RP1=0, select bank0
  9089     01D9  0830               	movf	?___flmul+2,w
  9090     01DA  1683               	bsf	3,5	;RP0=1, select bank1
  9091     01DB  1303               	bcf	3,6	;RP1=0, select bank1
  9092     01DC  00CF               	movwf	(efgtoa@l+2)^(0+128)
  9093     01DD  1283               	bcf	3,5	;RP0=0, select bank0
  9094     01DE  1303               	bcf	3,6	;RP1=0, select bank0
  9095     01DF  082F               	movf	?___flmul+1,w
  9096     01E0  1683               	bsf	3,5	;RP0=1, select bank1
  9097     01E1  1303               	bcf	3,6	;RP1=0, select bank1
  9098     01E2  00CE               	movwf	(efgtoa@l+1)^(0+128)
  9099     01E3  1283               	bcf	3,5	;RP0=0, select bank0
  9100     01E4  1303               	bcf	3,6	;RP1=0, select bank0
  9101     01E5  082E               	movf	?___flmul,w
  9102     01E6  1683               	bsf	3,5	;RP0=1, select bank1
  9103     01E7  1303               	bcf	3,6	;RP1=0, select bank1
  9104     01E8  00CD               	movwf	efgtoa@l^(0+128)
  9105     01E9                     l2774:
  9106                           
  9107                           ;C:\Program Files\Microchip\xc8\v2.46\pic\sources\c99\common\doprnt.c: 746:     if (h < 
      +                          l) {
  9108     01E9  084C               	movf	(efgtoa@h+3)^(0+128),w
  9109     01EA  1283               	bcf	3,5	;RP0=0, select bank0
  9110     01EB  1303               	bcf	3,6	;RP1=0, select bank0
  9111     01EC  00CB               	movwf	___flge@ff1+3
  9112     01ED  1683               	bsf	3,5	;RP0=1, select bank1
  9113     01EE  1303               	bcf	3,6	;RP1=0, select bank1
  9114     01EF  084B               	movf	(efgtoa@h+2)^(0+128),w
  9115     01F0  1283               	bcf	3,5	;RP0=0, select bank0
  9116     01F1  1303               	bcf	3,6	;RP1=0, select bank0
  9117     01F2  00CA               	movwf	___flge@ff1+2
  9118     01F3  1683               	bsf	3,5	;RP0=1, select bank1
  9119     01F4  1303               	bcf	3,6	;RP1=0, select bank1
  9120     01F5  084A               	movf	(efgtoa@h+1)^(0+128),w
  9121     01F6  1283               	bcf	3,5	;RP0=0, select bank0
  9122     01F7  1303               	bcf	3,6	;RP1=0, select bank0
  9123     01F8  00C9               	movwf	___flge@ff1+1
  9124     01F9  1683               	bsf	3,5	;RP0=1, select bank1
  9125     01FA  1303               	bcf	3,6	;RP1=0, select bank1
  9126     01FB  0849               	movf	efgtoa@h^(0+128),w
  9127     01FC  1283               	bcf	3,5	;RP0=0, select bank0
  9128     01FD  1303               	bcf	3,6	;RP1=0, select bank0
  9129     01FE  00C8               	movwf	___flge@ff1
  9130     01FF  1683               	bsf	3,5	;RP0=1, select bank1
  9131     0200  1303               	bcf	3,6	;RP1=0, select bank1
  9132     0201  0850               	movf	(efgtoa@l+3)^(0+128),w
  9133     0202  1283               	bcf	3,5	;RP0=0, select bank0
  9134     0203  1303               	bcf	3,6	;RP1=0, select bank0
  9135     0204  00CF               	movwf	___flge@ff2+3
  9136     0205  1683               	bsf	3,5	;RP0=1, select bank1
  9137     0206  1303               	bcf	3,6	;RP1=0, select bank1
  9138     0207  084F               	movf	(efgtoa@l+2)^(0+128),w
  9139     0208  1283               	bcf	3,5	;RP0=0, select bank0
  9140     0209  1303               	bcf	3,6	;RP1=0, select bank0
  9141     020A  00CE               	movwf	___flge@ff2+2
  9142     020B  1683               	bsf	3,5	;RP0=1, select bank1
  9143     020C  1303               	bcf	3,6	;RP1=0, select bank1
  9144     020D  084E               	movf	(efgtoa@l+1)^(0+128),w
  9145     020E  1283               	bcf	3,5	;RP0=0, select bank0
  9146     020F  1303               	bcf	3,6	;RP1=0, select bank0
  9147     0210  00CD               	movwf	___flge@ff2+1
  9148     0211  1683               	bsf	3,5	;RP0=1, select bank1
  9149     0212  1303               	bcf	3,6	;RP1=0, select bank1
  9150     0213  084D               	movf	efgtoa@l^(0+128),w
  9151     0214  1283               	bcf	3,5	;RP0=0, select bank0
  9152     0215  1303               	bcf	3,6	;RP1=0, select bank0
  9153     0216  00CC               	movwf	___flge@ff2
  9154     0217  160A  118A  2124  120A  118A  	fcall	___flge
  9155     021C  1803               	btfsc	3,0
  9156     021D  2A1F               	goto	u4231
  9157     021E  2A20               	goto	u4230
  9158     021F                     u4231:
  9159     021F  2A2B               	goto	l2778
  9160     0220                     u4230:
  9161     0220                     l2776:
  9162                           
  9163                           ;C:\Program Files\Microchip\xc8\v2.46\pic\sources\c99\common\doprnt.c: 747:         l = 
      +                          0.0;
  9164     0220  3000               	movlw	0
  9165     0221  1683               	bsf	3,5	;RP0=1, select bank1
  9166     0222  1303               	bcf	3,6	;RP1=0, select bank1
  9167     0223  00D0               	movwf	(efgtoa@l+3)^(0+128)
  9168     0224  3000               	movlw	0
  9169     0225  00CF               	movwf	(efgtoa@l+2)^(0+128)
  9170     0226  3000               	movlw	0
  9171     0227  00CE               	movwf	(efgtoa@l+1)^(0+128)
  9172     0228  3000               	movlw	0
  9173     0229  00CD               	movwf	efgtoa@l^(0+128)
  9174                           
  9175                           ;C:\Program Files\Microchip\xc8\v2.46\pic\sources\c99\common\doprnt.c: 748:     } else {
  9176     022A  2A72               	goto	l2784
  9177     022B                     l2778:
  9178                           
  9179                           ;C:\Program Files\Microchip\xc8\v2.46\pic\sources\c99\common\doprnt.c: 750:         if (
      +                          (h == l) && !(d % 2)) {
  9180     022B  1683               	bsf	3,5	;RP0=1, select bank1
  9181     022C  1303               	bcf	3,6	;RP1=0, select bank1
  9182     022D  084C               	movf	(efgtoa@h+3)^(0+128),w
  9183     022E  1283               	bcf	3,5	;RP0=0, select bank0
  9184     022F  1303               	bcf	3,6	;RP1=0, select bank0
  9185     0230  00A3               	movwf	___fleq@ff1+3
  9186     0231  1683               	bsf	3,5	;RP0=1, select bank1
  9187     0232  1303               	bcf	3,6	;RP1=0, select bank1
  9188     0233  084B               	movf	(efgtoa@h+2)^(0+128),w
  9189     0234  1283               	bcf	3,5	;RP0=0, select bank0
  9190     0235  1303               	bcf	3,6	;RP1=0, select bank0
  9191     0236  00A2               	movwf	___fleq@ff1+2
  9192     0237  1683               	bsf	3,5	;RP0=1, select bank1
  9193     0238  1303               	bcf	3,6	;RP1=0, select bank1
  9194     0239  084A               	movf	(efgtoa@h+1)^(0+128),w
  9195     023A  1283               	bcf	3,5	;RP0=0, select bank0
  9196     023B  1303               	bcf	3,6	;RP1=0, select bank0
  9197     023C  00A1               	movwf	___fleq@ff1+1
  9198     023D  1683               	bsf	3,5	;RP0=1, select bank1
  9199     023E  1303               	bcf	3,6	;RP1=0, select bank1
  9200     023F  0849               	movf	efgtoa@h^(0+128),w
  9201     0240  1283               	bcf	3,5	;RP0=0, select bank0
  9202     0241  1303               	bcf	3,6	;RP1=0, select bank0
  9203     0242  00A0               	movwf	___fleq@ff1
  9204     0243  1683               	bsf	3,5	;RP0=1, select bank1
  9205     0244  1303               	bcf	3,6	;RP1=0, select bank1
  9206     0245  0850               	movf	(efgtoa@l+3)^(0+128),w
  9207     0246  1283               	bcf	3,5	;RP0=0, select bank0
  9208     0247  1303               	bcf	3,6	;RP1=0, select bank0
  9209     0248  00A7               	movwf	___fleq@ff2+3
  9210     0249  1683               	bsf	3,5	;RP0=1, select bank1
  9211     024A  1303               	bcf	3,6	;RP1=0, select bank1
  9212     024B  084F               	movf	(efgtoa@l+2)^(0+128),w
  9213     024C  1283               	bcf	3,5	;RP0=0, select bank0
  9214     024D  1303               	bcf	3,6	;RP1=0, select bank0
  9215     024E  00A6               	movwf	___fleq@ff2+2
  9216     024F  1683               	bsf	3,5	;RP0=1, select bank1
  9217     0250  1303               	bcf	3,6	;RP1=0, select bank1
  9218     0251  084E               	movf	(efgtoa@l+1)^(0+128),w
  9219     0252  1283               	bcf	3,5	;RP0=0, select bank0
  9220     0253  1303               	bcf	3,6	;RP1=0, select bank0
  9221     0254  00A5               	movwf	___fleq@ff2+1
  9222     0255  1683               	bsf	3,5	;RP0=1, select bank1
  9223     0256  1303               	bcf	3,6	;RP1=0, select bank1
  9224     0257  084D               	movf	efgtoa@l^(0+128),w
  9225     0258  1283               	bcf	3,5	;RP0=0, select bank0
  9226     0259  1303               	bcf	3,6	;RP1=0, select bank0
  9227     025A  00A4               	movwf	___fleq@ff2
  9228     025B  120A  118A  27A8  120A  118A  	fcall	___fleq
  9229     0260  1C03               	btfss	3,0
  9230     0261  2A63               	goto	u4241
  9231     0262  2A64               	goto	u4240
  9232     0263                     u4241:
  9233     0263  2A72               	goto	l2784
  9234     0264                     u4240:
  9235     0264                     l2780:
  9236     0264  1683               	bsf	3,5	;RP0=1, select bank1
  9237     0265  1303               	bcf	3,6	;RP1=0, select bank1
  9238     0266  183A               	btfsc	efgtoa@d^(0+128),0
  9239     0267  2A69               	goto	u4251
  9240     0268  2A6A               	goto	u4250
  9241     0269                     u4251:
  9242     0269  2A72               	goto	l2784
  9243     026A                     u4250:
  9244     026A                     l2782:
  9245                           
  9246                           ;C:\Program Files\Microchip\xc8\v2.46\pic\sources\c99\common\doprnt.c: 751:             
      +                          l = 0.0;
  9247     026A  3000               	movlw	0
  9248     026B  00D0               	movwf	(efgtoa@l+3)^(0+128)
  9249     026C  3000               	movlw	0
  9250     026D  00CF               	movwf	(efgtoa@l+2)^(0+128)
  9251     026E  3000               	movlw	0
  9252     026F  00CE               	movwf	(efgtoa@l+1)^(0+128)
  9253     0270  3000               	movlw	0
  9254     0271  00CD               	movwf	efgtoa@l^(0+128)
  9255     0272                     l2784:
  9256                           
  9257                           ;C:\Program Files\Microchip\xc8\v2.46\pic\sources\c99\common\doprnt.c: 756:     h = g.f 
      +                          + l;
  9258     0272  1683               	bsf	3,5	;RP0=1, select bank1
  9259     0273  1303               	bcf	3,6	;RP1=0, select bank1
  9260     0274  0850               	movf	(efgtoa@l+3)^(0+128),w
  9261     0275  1283               	bcf	3,5	;RP0=0, select bank0
  9262     0276  1303               	bcf	3,6	;RP1=0, select bank0
  9263     0277  00A3               	movwf	___fladd@b+3
  9264     0278  1683               	bsf	3,5	;RP0=1, select bank1
  9265     0279  1303               	bcf	3,6	;RP1=0, select bank1
  9266     027A  084F               	movf	(efgtoa@l+2)^(0+128),w
  9267     027B  1283               	bcf	3,5	;RP0=0, select bank0
  9268     027C  1303               	bcf	3,6	;RP1=0, select bank0
  9269     027D  00A2               	movwf	___fladd@b+2
  9270     027E  1683               	bsf	3,5	;RP0=1, select bank1
  9271     027F  1303               	bcf	3,6	;RP1=0, select bank1
  9272     0280  084E               	movf	(efgtoa@l+1)^(0+128),w
  9273     0281  1283               	bcf	3,5	;RP0=0, select bank0
  9274     0282  1303               	bcf	3,6	;RP1=0, select bank0
  9275     0283  00A1               	movwf	___fladd@b+1
  9276     0284  1683               	bsf	3,5	;RP0=1, select bank1
  9277     0285  1303               	bcf	3,6	;RP1=0, select bank1
  9278     0286  084D               	movf	efgtoa@l^(0+128),w
  9279     0287  1283               	bcf	3,5	;RP0=0, select bank0
  9280     0288  1303               	bcf	3,6	;RP1=0, select bank0
  9281     0289  00A0               	movwf	___fladd@b
  9282     028A  1683               	bsf	3,5	;RP0=1, select bank1
  9283     028B  1303               	bcf	3,6	;RP1=0, select bank1
  9284     028C  0857               	movf	(efgtoa@g+3)^(0+128),w
  9285     028D  1283               	bcf	3,5	;RP0=0, select bank0
  9286     028E  1303               	bcf	3,6	;RP1=0, select bank0
  9287     028F  00A7               	movwf	___fladd@a+3
  9288     0290  1683               	bsf	3,5	;RP0=1, select bank1
  9289     0291  1303               	bcf	3,6	;RP1=0, select bank1
  9290     0292  0856               	movf	(efgtoa@g+2)^(0+128),w
  9291     0293  1283               	bcf	3,5	;RP0=0, select bank0
  9292     0294  1303               	bcf	3,6	;RP1=0, select bank0
  9293     0295  00A6               	movwf	___fladd@a+2
  9294     0296  1683               	bsf	3,5	;RP0=1, select bank1
  9295     0297  1303               	bcf	3,6	;RP1=0, select bank1
  9296     0298  0855               	movf	(efgtoa@g+1)^(0+128),w
  9297     0299  1283               	bcf	3,5	;RP0=0, select bank0
  9298     029A  1303               	bcf	3,6	;RP1=0, select bank0
  9299     029B  00A5               	movwf	___fladd@a+1
  9300     029C  1683               	bsf	3,5	;RP0=1, select bank1
  9301     029D  1303               	bcf	3,6	;RP1=0, select bank1
  9302     029E  0854               	movf	efgtoa@g^(0+128),w
  9303     029F  1283               	bcf	3,5	;RP0=0, select bank0
  9304     02A0  1303               	bcf	3,6	;RP1=0, select bank0
  9305     02A1  00A4               	movwf	___fladd@a
  9306     02A2  160A  118A  25A8  120A  118A  	fcall	___fladd
  9307     02A7  1283               	bcf	3,5	;RP0=0, select bank0
  9308     02A8  1303               	bcf	3,6	;RP1=0, select bank0
  9309     02A9  0823               	movf	?___fladd+3,w
  9310     02AA  1683               	bsf	3,5	;RP0=1, select bank1
  9311     02AB  1303               	bcf	3,6	;RP1=0, select bank1
  9312     02AC  00CC               	movwf	(efgtoa@h+3)^(0+128)
  9313     02AD  1283               	bcf	3,5	;RP0=0, select bank0
  9314     02AE  1303               	bcf	3,6	;RP1=0, select bank0
  9315     02AF  0822               	movf	?___fladd+2,w
  9316     02B0  1683               	bsf	3,5	;RP0=1, select bank1
  9317     02B1  1303               	bcf	3,6	;RP1=0, select bank1
  9318     02B2  00CB               	movwf	(efgtoa@h+2)^(0+128)
  9319     02B3  1283               	bcf	3,5	;RP0=0, select bank0
  9320     02B4  1303               	bcf	3,6	;RP1=0, select bank0
  9321     02B5  0821               	movf	?___fladd+1,w
  9322     02B6  1683               	bsf	3,5	;RP0=1, select bank1
  9323     02B7  1303               	bcf	3,6	;RP1=0, select bank1
  9324     02B8  00CA               	movwf	(efgtoa@h+1)^(0+128)
  9325     02B9  1283               	bcf	3,5	;RP0=0, select bank0
  9326     02BA  1303               	bcf	3,6	;RP1=0, select bank0
  9327     02BB  0820               	movf	?___fladd,w
  9328     02BC  1683               	bsf	3,5	;RP0=1, select bank1
  9329     02BD  1303               	bcf	3,6	;RP1=0, select bank1
  9330     02BE  00C9               	movwf	efgtoa@h^(0+128)
  9331     02BF                     l2786:
  9332                           
  9333                           ;C:\Program Files\Microchip\xc8\v2.46\pic\sources\c99\common\doprnt.c: 758:  if (h >= (o
      +                          u.f*10.0)) {
  9334     02BF  084C               	movf	(efgtoa@h+3)^(0+128),w
  9335     02C0  1283               	bcf	3,5	;RP0=0, select bank0
  9336     02C1  1303               	bcf	3,6	;RP1=0, select bank0
  9337     02C2  00CB               	movwf	___flge@ff1+3
  9338     02C3  1683               	bsf	3,5	;RP0=1, select bank1
  9339     02C4  1303               	bcf	3,6	;RP1=0, select bank1
  9340     02C5  084B               	movf	(efgtoa@h+2)^(0+128),w
  9341     02C6  1283               	bcf	3,5	;RP0=0, select bank0
  9342     02C7  1303               	bcf	3,6	;RP1=0, select bank0
  9343     02C8  00CA               	movwf	___flge@ff1+2
  9344     02C9  1683               	bsf	3,5	;RP0=1, select bank1
  9345     02CA  1303               	bcf	3,6	;RP1=0, select bank1
  9346     02CB  084A               	movf	(efgtoa@h+1)^(0+128),w
  9347     02CC  1283               	bcf	3,5	;RP0=0, select bank0
  9348     02CD  1303               	bcf	3,6	;RP1=0, select bank0
  9349     02CE  00C9               	movwf	___flge@ff1+1
  9350     02CF  1683               	bsf	3,5	;RP0=1, select bank1
  9351     02D0  1303               	bcf	3,6	;RP1=0, select bank1
  9352     02D1  0849               	movf	efgtoa@h^(0+128),w
  9353     02D2  1283               	bcf	3,5	;RP0=0, select bank0
  9354     02D3  1303               	bcf	3,6	;RP1=0, select bank0
  9355     02D4  00C8               	movwf	___flge@ff1
  9356     02D5  3041               	movlw	65
  9357     02D6  00B1               	movwf	___flmul@b+3
  9358     02D7  3020               	movlw	32
  9359     02D8  00B0               	movwf	___flmul@b+2
  9360     02D9  3000               	movlw	0
  9361     02DA  00AF               	movwf	___flmul@b+1
  9362     02DB  3000               	movlw	0
  9363     02DC  00AE               	movwf	___flmul@b
  9364     02DD  1683               	bsf	3,5	;RP0=1, select bank1
  9365     02DE  1303               	bcf	3,6	;RP1=0, select bank1
  9366     02DF  0846               	movf	(efgtoa@ou+3)^(0+128),w
  9367     02E0  1283               	bcf	3,5	;RP0=0, select bank0
  9368     02E1  1303               	bcf	3,6	;RP1=0, select bank0
  9369     02E2  00B5               	movwf	___flmul@a+3
  9370     02E3  1683               	bsf	3,5	;RP0=1, select bank1
  9371     02E4  1303               	bcf	3,6	;RP1=0, select bank1
  9372     02E5  0845               	movf	(efgtoa@ou+2)^(0+128),w
  9373     02E6  1283               	bcf	3,5	;RP0=0, select bank0
  9374     02E7  1303               	bcf	3,6	;RP1=0, select bank0
  9375     02E8  00B4               	movwf	___flmul@a+2
  9376     02E9  1683               	bsf	3,5	;RP0=1, select bank1
  9377     02EA  1303               	bcf	3,6	;RP1=0, select bank1
  9378     02EB  0844               	movf	(efgtoa@ou+1)^(0+128),w
  9379     02EC  1283               	bcf	3,5	;RP0=0, select bank0
  9380     02ED  1303               	bcf	3,6	;RP1=0, select bank0
  9381     02EE  00B3               	movwf	___flmul@a+1
  9382     02EF  1683               	bsf	3,5	;RP0=1, select bank1
  9383     02F0  1303               	bcf	3,6	;RP1=0, select bank1
  9384     02F1  0843               	movf	efgtoa@ou^(0+128),w
  9385     02F2  1283               	bcf	3,5	;RP0=0, select bank0
  9386     02F3  1303               	bcf	3,6	;RP1=0, select bank0
  9387     02F4  00B2               	movwf	___flmul@a
  9388     02F5  120A  158A  24BB  120A  118A  	fcall	___flmul
  9389     02FA  1283               	bcf	3,5	;RP0=0, select bank0
  9390     02FB  1303               	bcf	3,6	;RP1=0, select bank0
  9391     02FC  0831               	movf	?___flmul+3,w
  9392     02FD  00CF               	movwf	___flge@ff2+3
  9393     02FE  0830               	movf	?___flmul+2,w
  9394     02FF  00CE               	movwf	___flge@ff2+2
  9395     0300  082F               	movf	?___flmul+1,w
  9396     0301  00CD               	movwf	___flge@ff2+1
  9397     0302  082E               	movf	?___flmul,w
  9398     0303  00CC               	movwf	___flge@ff2
  9399     0304  160A  118A  2124  120A  118A  	fcall	___flge
  9400     0309  1C03               	btfss	3,0
  9401     030A  2B0C               	goto	u4261
  9402     030B  2B0D               	goto	u4260
  9403     030C                     u4261:
  9404     030C  2B60               	goto	l686
  9405     030D                     u4260:
  9406     030D                     l2788:
  9407                           
  9408                           ;C:\Program Files\Microchip\xc8\v2.46\pic\sources\c99\common\doprnt.c: 759:   e++;
  9409     030D  3001               	movlw	1
  9410     030E  1683               	bsf	3,5	;RP0=1, select bank1
  9411     030F  1303               	bcf	3,6	;RP1=0, select bank1
  9412     0310  07BF               	addwf	efgtoa@e^(0+128),f
  9413     0311  1803               	skipnc
  9414     0312  0AC0               	incf	(efgtoa@e+1)^(0+128),f
  9415     0313  3000               	movlw	0
  9416     0314  07C0               	addwf	(efgtoa@e+1)^(0+128),f
  9417     0315                     l2790:
  9418                           
  9419                           ;C:\Program Files\Microchip\xc8\v2.46\pic\sources\c99\common\doprnt.c: 760:   ou.f *= 10
      +                          .0;
  9420     0315  3041               	movlw	65
  9421     0316  1283               	bcf	3,5	;RP0=0, select bank0
  9422     0317  1303               	bcf	3,6	;RP1=0, select bank0
  9423     0318  00B1               	movwf	___flmul@b+3
  9424     0319  3020               	movlw	32
  9425     031A  00B0               	movwf	___flmul@b+2
  9426     031B  3000               	movlw	0
  9427     031C  00AF               	movwf	___flmul@b+1
  9428     031D  3000               	movlw	0
  9429     031E  00AE               	movwf	___flmul@b
  9430     031F  1683               	bsf	3,5	;RP0=1, select bank1
  9431     0320  1303               	bcf	3,6	;RP1=0, select bank1
  9432     0321  0846               	movf	(efgtoa@ou+3)^(0+128),w
  9433     0322  1283               	bcf	3,5	;RP0=0, select bank0
  9434     0323  1303               	bcf	3,6	;RP1=0, select bank0
  9435     0324  00B5               	movwf	___flmul@a+3
  9436     0325  1683               	bsf	3,5	;RP0=1, select bank1
  9437     0326  1303               	bcf	3,6	;RP1=0, select bank1
  9438     0327  0845               	movf	(efgtoa@ou+2)^(0+128),w
  9439     0328  1283               	bcf	3,5	;RP0=0, select bank0
  9440     0329  1303               	bcf	3,6	;RP1=0, select bank0
  9441     032A  00B4               	movwf	___flmul@a+2
  9442     032B  1683               	bsf	3,5	;RP0=1, select bank1
  9443     032C  1303               	bcf	3,6	;RP1=0, select bank1
  9444     032D  0844               	movf	(efgtoa@ou+1)^(0+128),w
  9445     032E  1283               	bcf	3,5	;RP0=0, select bank0
  9446     032F  1303               	bcf	3,6	;RP1=0, select bank0
  9447     0330  00B3               	movwf	___flmul@a+1
  9448     0331  1683               	bsf	3,5	;RP0=1, select bank1
  9449     0332  1303               	bcf	3,6	;RP1=0, select bank1
  9450     0333  0843               	movf	efgtoa@ou^(0+128),w
  9451     0334  1283               	bcf	3,5	;RP0=0, select bank0
  9452     0335  1303               	bcf	3,6	;RP1=0, select bank0
  9453     0336  00B2               	movwf	___flmul@a
  9454     0337  120A  158A  24BB  120A  118A  	fcall	___flmul
  9455     033C  1283               	bcf	3,5	;RP0=0, select bank0
  9456     033D  1303               	bcf	3,6	;RP1=0, select bank0
  9457     033E  0831               	movf	?___flmul+3,w
  9458     033F  1683               	bsf	3,5	;RP0=1, select bank1
  9459     0340  1303               	bcf	3,6	;RP1=0, select bank1
  9460     0341  00C6               	movwf	(efgtoa@ou+3)^(0+128)
  9461     0342  1283               	bcf	3,5	;RP0=0, select bank0
  9462     0343  1303               	bcf	3,6	;RP1=0, select bank0
  9463     0344  0830               	movf	?___flmul+2,w
  9464     0345  1683               	bsf	3,5	;RP0=1, select bank1
  9465     0346  1303               	bcf	3,6	;RP1=0, select bank1
  9466     0347  00C5               	movwf	(efgtoa@ou+2)^(0+128)
  9467     0348  1283               	bcf	3,5	;RP0=0, select bank0
  9468     0349  1303               	bcf	3,6	;RP1=0, select bank0
  9469     034A  082F               	movf	?___flmul+1,w
  9470     034B  1683               	bsf	3,5	;RP0=1, select bank1
  9471     034C  1303               	bcf	3,6	;RP1=0, select bank1
  9472     034D  00C4               	movwf	(efgtoa@ou+1)^(0+128)
  9473     034E  1283               	bcf	3,5	;RP0=0, select bank0
  9474     034F  1303               	bcf	3,6	;RP1=0, select bank0
  9475     0350  082E               	movf	?___flmul,w
  9476     0351  1683               	bsf	3,5	;RP0=1, select bank1
  9477     0352  1303               	bcf	3,6	;RP1=0, select bank1
  9478     0353  00C3               	movwf	efgtoa@ou^(0+128)
  9479     0354                     l2792:
  9480                           
  9481                           ;C:\Program Files\Microchip\xc8\v2.46\pic\sources\c99\common\doprnt.c: 762:   if (nmode 
      +                          == 'f') {
  9482     0354  3066               	movlw	102
  9483     0355  0639               	xorwf	efgtoa@nmode^(0+128),w
  9484     0356  1D03               	btfss	3,2
  9485     0357  2B59               	goto	u4271
  9486     0358  2B5A               	goto	u4270
  9487     0359                     u4271:
  9488     0359  2B60               	goto	l686
  9489     035A                     u4270:
  9490     035A                     l2794:
  9491                           
  9492                           ;C:\Program Files\Microchip\xc8\v2.46\pic\sources\c99\common\doprnt.c: 764:    m++;
  9493     035A  3001               	movlw	1
  9494     035B  07BC               	addwf	efgtoa@m^(0+128),f
  9495     035C  1803               	skipnc
  9496     035D  0ABD               	incf	(efgtoa@m+1)^(0+128),f
  9497     035E  3000               	movlw	0
  9498     035F  07BD               	addwf	(efgtoa@m+1)^(0+128),f
  9499     0360                     l686:	
  9500                           ;C:\Program Files\Microchip\xc8\v2.46\pic\sources\c99\common\doprnt.c: 767:  }
  9501                           
  9502                           
  9503                           ;C:\Program Files\Microchip\xc8\v2.46\pic\sources\c99\common\doprnt.c: 770:     u = ou;
  9504     0360  1683               	bsf	3,5	;RP0=1, select bank1
  9505     0361  1303               	bcf	3,6	;RP1=0, select bank1
  9506     0362  0846               	movf	(efgtoa@ou+3)^(0+128),w
  9507     0363  00DB               	movwf	(efgtoa@u+3)^(0+128)
  9508     0364  0845               	movf	(efgtoa@ou+2)^(0+128),w
  9509     0365  00DA               	movwf	(efgtoa@u+2)^(0+128)
  9510     0366  0844               	movf	(efgtoa@ou+1)^(0+128),w
  9511     0367  00D9               	movwf	(efgtoa@u+1)^(0+128)
  9512     0368  0843               	movf	efgtoa@ou^(0+128),w
  9513     0369  00D8               	movwf	efgtoa@u^(0+128)
  9514                           
  9515                           ;C:\Program Files\Microchip\xc8\v2.46\pic\sources\c99\common\doprnt.c: 774:  ne = e;
  9516     036A  0840               	movf	(efgtoa@e+1)^(0+128),w
  9517     036B  00B0               	movwf	(efgtoa@ne+1)^(0+128)
  9518     036C  083F               	movf	efgtoa@e^(0+128),w
  9519     036D  00AF               	movwf	efgtoa@ne^(0+128)
  9520     036E                     l2796:
  9521                           
  9522                           ;C:\Program Files\Microchip\xc8\v2.46\pic\sources\c99\common\doprnt.c: 776:     pp = 0;
  9523     036E  01B7               	clrf	efgtoa@pp^(0+128)
  9524     036F                     l2798:
  9525                           
  9526                           ;C:\Program Files\Microchip\xc8\v2.46\pic\sources\c99\common\doprnt.c: 777:     t = 0;
  9527     036F  01B3               	clrf	efgtoa@t^(0+128)
  9528     0370  01B4               	clrf	(efgtoa@t+1)^(0+128)
  9529     0371                     l2800:
  9530                           
  9531                           ;C:\Program Files\Microchip\xc8\v2.46\pic\sources\c99\common\doprnt.c: 778:     i = 0;
  9532     0371  01C7               	clrf	efgtoa@i^(0+128)
  9533     0372  01C8               	clrf	(efgtoa@i+1)^(0+128)
  9534                           
  9535                           ;C:\Program Files\Microchip\xc8\v2.46\pic\sources\c99\common\doprnt.c: 779:     while ((
      +                          i < m) && (n < (80 - 5))) {
  9536     0373  2D36               	goto	l2844
  9537     0374                     l2802:
  9538                           
  9539                           ;C:\Program Files\Microchip\xc8\v2.46\pic\sources\c99\common\doprnt.c: 780:         l = 
      +                          floorf(h/u.f);
  9540     0374  1683               	bsf	3,5	;RP0=1, select bank1
  9541     0375  1303               	bcf	3,6	;RP1=0, select bank1
  9542     0376  085B               	movf	(efgtoa@u+3)^(0+128),w
  9543     0377  1283               	bcf	3,5	;RP0=0, select bank0
  9544     0378  1303               	bcf	3,6	;RP1=0, select bank0
  9545     0379  00CB               	movwf	___fldiv@a+3
  9546     037A  1683               	bsf	3,5	;RP0=1, select bank1
  9547     037B  1303               	bcf	3,6	;RP1=0, select bank1
  9548     037C  085A               	movf	(efgtoa@u+2)^(0+128),w
  9549     037D  1283               	bcf	3,5	;RP0=0, select bank0
  9550     037E  1303               	bcf	3,6	;RP1=0, select bank0
  9551     037F  00CA               	movwf	___fldiv@a+2
  9552     0380  1683               	bsf	3,5	;RP0=1, select bank1
  9553     0381  1303               	bcf	3,6	;RP1=0, select bank1
  9554     0382  0859               	movf	(efgtoa@u+1)^(0+128),w
  9555     0383  1283               	bcf	3,5	;RP0=0, select bank0
  9556     0384  1303               	bcf	3,6	;RP1=0, select bank0
  9557     0385  00C9               	movwf	___fldiv@a+1
  9558     0386  1683               	bsf	3,5	;RP0=1, select bank1
  9559     0387  1303               	bcf	3,6	;RP1=0, select bank1
  9560     0388  0858               	movf	efgtoa@u^(0+128),w
  9561     0389  1283               	bcf	3,5	;RP0=0, select bank0
  9562     038A  1303               	bcf	3,6	;RP1=0, select bank0
  9563     038B  00C8               	movwf	___fldiv@a
  9564     038C  1683               	bsf	3,5	;RP0=1, select bank1
  9565     038D  1303               	bcf	3,6	;RP1=0, select bank1
  9566     038E  084C               	movf	(efgtoa@h+3)^(0+128),w
  9567     038F  1283               	bcf	3,5	;RP0=0, select bank0
  9568     0390  1303               	bcf	3,6	;RP1=0, select bank0
  9569     0391  00CF               	movwf	___fldiv@b+3
  9570     0392  1683               	bsf	3,5	;RP0=1, select bank1
  9571     0393  1303               	bcf	3,6	;RP1=0, select bank1
  9572     0394  084B               	movf	(efgtoa@h+2)^(0+128),w
  9573     0395  1283               	bcf	3,5	;RP0=0, select bank0
  9574     0396  1303               	bcf	3,6	;RP1=0, select bank0
  9575     0397  00CE               	movwf	___fldiv@b+2
  9576     0398  1683               	bsf	3,5	;RP0=1, select bank1
  9577     0399  1303               	bcf	3,6	;RP1=0, select bank1
  9578     039A  084A               	movf	(efgtoa@h+1)^(0+128),w
  9579     039B  1283               	bcf	3,5	;RP0=0, select bank0
  9580     039C  1303               	bcf	3,6	;RP1=0, select bank0
  9581     039D  00CD               	movwf	___fldiv@b+1
  9582     039E  1683               	bsf	3,5	;RP0=1, select bank1
  9583     039F  1303               	bcf	3,6	;RP1=0, select bank1
  9584     03A0  0849               	movf	efgtoa@h^(0+128),w
  9585     03A1  1283               	bcf	3,5	;RP0=0, select bank0
  9586     03A2  1303               	bcf	3,6	;RP1=0, select bank0
  9587     03A3  00CC               	movwf	___fldiv@b
  9588     03A4  120A  118A  25D9  120A  118A  	fcall	___fldiv
  9589     03A9  1283               	bcf	3,5	;RP0=0, select bank0
  9590     03AA  1303               	bcf	3,6	;RP1=0, select bank0
  9591     03AB  084B               	movf	?___fldiv+3,w
  9592     03AC  00E5               	movwf	floorf@x+3
  9593     03AD  084A               	movf	?___fldiv+2,w
  9594     03AE  00E4               	movwf	floorf@x+2
  9595     03AF  0849               	movf	?___fldiv+1,w
  9596     03B0  00E3               	movwf	floorf@x+1
  9597     03B1  0848               	movf	?___fldiv,w
  9598     03B2  00E2               	movwf	floorf@x
  9599     03B3  120A  158A  2079  120A  118A  	fcall	_floorf
  9600     03B8  1283               	bcf	3,5	;RP0=0, select bank0
  9601     03B9  1303               	bcf	3,6	;RP1=0, select bank0
  9602     03BA  0865               	movf	?_floorf+3,w
  9603     03BB  1683               	bsf	3,5	;RP0=1, select bank1
  9604     03BC  1303               	bcf	3,6	;RP1=0, select bank1
  9605     03BD  00D0               	movwf	(efgtoa@l+3)^(0+128)
  9606     03BE  1283               	bcf	3,5	;RP0=0, select bank0
  9607     03BF  1303               	bcf	3,6	;RP1=0, select bank0
  9608     03C0  0864               	movf	?_floorf+2,w
  9609     03C1  1683               	bsf	3,5	;RP0=1, select bank1
  9610     03C2  1303               	bcf	3,6	;RP1=0, select bank1
  9611     03C3  00CF               	movwf	(efgtoa@l+2)^(0+128)
  9612     03C4  1283               	bcf	3,5	;RP0=0, select bank0
  9613     03C5  1303               	bcf	3,6	;RP1=0, select bank0
  9614     03C6  0863               	movf	?_floorf+1,w
  9615     03C7  1683               	bsf	3,5	;RP0=1, select bank1
  9616     03C8  1303               	bcf	3,6	;RP1=0, select bank1
  9617     03C9  00CE               	movwf	(efgtoa@l+1)^(0+128)
  9618     03CA  1283               	bcf	3,5	;RP0=0, select bank0
  9619     03CB  1303               	bcf	3,6	;RP1=0, select bank0
  9620     03CC  0862               	movf	?_floorf,w
  9621     03CD  1683               	bsf	3,5	;RP0=1, select bank1
  9622     03CE  1303               	bcf	3,6	;RP1=0, select bank1
  9623     03CF  00CD               	movwf	efgtoa@l^(0+128)
  9624                           
  9625                           ;C:\Program Files\Microchip\xc8\v2.46\pic\sources\c99\common\doprnt.c: 781:         d = 
      +                          (int)l > 9 ? 9 : (int)l;
  9626     03D0  0850               	movf	(efgtoa@l+3)^(0+128),w
  9627     03D1  1283               	bcf	3,5	;RP0=0, select bank0
  9628     03D2  1303               	bcf	3,6	;RP1=0, select bank0
  9629     03D3  00A3               	movwf	___fltol@f1+3
  9630     03D4  1683               	bsf	3,5	;RP0=1, select bank1
  9631     03D5  1303               	bcf	3,6	;RP1=0, select bank1
  9632     03D6  084F               	movf	(efgtoa@l+2)^(0+128),w
  9633     03D7  1283               	bcf	3,5	;RP0=0, select bank0
  9634     03D8  1303               	bcf	3,6	;RP1=0, select bank0
  9635     03D9  00A2               	movwf	___fltol@f1+2
  9636     03DA  1683               	bsf	3,5	;RP0=1, select bank1
  9637     03DB  1303               	bcf	3,6	;RP1=0, select bank1
  9638     03DC  084E               	movf	(efgtoa@l+1)^(0+128),w
  9639     03DD  1283               	bcf	3,5	;RP0=0, select bank0
  9640     03DE  1303               	bcf	3,6	;RP1=0, select bank0
  9641     03DF  00A1               	movwf	___fltol@f1+1
  9642     03E0  1683               	bsf	3,5	;RP0=1, select bank1
  9643     03E1  1303               	bcf	3,6	;RP1=0, select bank1
  9644     03E2  084D               	movf	efgtoa@l^(0+128),w
  9645     03E3  1283               	bcf	3,5	;RP0=0, select bank0
  9646     03E4  1303               	bcf	3,6	;RP1=0, select bank0
  9647     03E5  00A0               	movwf	___fltol@f1
  9648     03E6  120A  158A  2001  120A  118A  	fcall	___fltol
  9649     03EB  1283               	bcf	3,5	;RP0=0, select bank0
  9650     03EC  1303               	bcf	3,6	;RP1=0, select bank0
  9651     03ED  0821               	movf	?___fltol+1,w
  9652     03EE  3A80               	xorlw	128
  9653     03EF  00FF               	movwf	btemp+1
  9654     03F0  3080               	movlw	128
  9655     03F1  027F               	subwf	btemp+1,w
  9656     03F2  1D03               	skipz
  9657     03F3  2BF6               	goto	u4285
  9658     03F4  300A               	movlw	10
  9659     03F5  0220               	subwf	?___fltol,w
  9660     03F6                     u4285:
  9661     03F6  1803               	skipnc
  9662     03F7  2BF9               	goto	u4281
  9663     03F8  2BFA               	goto	u4280
  9664     03F9                     u4281:
  9665     03F9  2C24               	goto	l2806
  9666     03FA                     u4280:
  9667     03FA                     l2804:
  9668     03FA  1683               	bsf	3,5	;RP0=1, select bank1
  9669     03FB  1303               	bcf	3,6	;RP1=0, select bank1
  9670     03FC  0850               	movf	(efgtoa@l+3)^(0+128),w
  9671     03FD  1283               	bcf	3,5	;RP0=0, select bank0
  9672     03FE  1303               	bcf	3,6	;RP1=0, select bank0
  9673     03FF  00A3               	movwf	___fltol@f1+3
  9674     0400  1683               	bsf	3,5	;RP0=1, select bank1
  9675     0401  1303               	bcf	3,6	;RP1=0, select bank1
  9676     0402  084F               	movf	(efgtoa@l+2)^(0+128),w
  9677     0403  1283               	bcf	3,5	;RP0=0, select bank0
  9678     0404  1303               	bcf	3,6	;RP1=0, select bank0
  9679     0405  00A2               	movwf	___fltol@f1+2
  9680     0406  1683               	bsf	3,5	;RP0=1, select bank1
  9681     0407  1303               	bcf	3,6	;RP1=0, select bank1
  9682     0408  084E               	movf	(efgtoa@l+1)^(0+128),w
  9683     0409  1283               	bcf	3,5	;RP0=0, select bank0
  9684     040A  1303               	bcf	3,6	;RP1=0, select bank0
  9685     040B  00A1               	movwf	___fltol@f1+1
  9686     040C  1683               	bsf	3,5	;RP0=1, select bank1
  9687     040D  1303               	bcf	3,6	;RP1=0, select bank1
  9688     040E  084D               	movf	efgtoa@l^(0+128),w
  9689     040F  1283               	bcf	3,5	;RP0=0, select bank0
  9690     0410  1303               	bcf	3,6	;RP1=0, select bank0
  9691     0411  00A0               	movwf	___fltol@f1
  9692     0412  120A  158A  2001  120A  118A  	fcall	___fltol
  9693     0417  1283               	bcf	3,5	;RP0=0, select bank0
  9694     0418  1303               	bcf	3,6	;RP1=0, select bank0
  9695     0419  0821               	movf	?___fltol+1,w
  9696     041A  1683               	bsf	3,5	;RP0=1, select bank1
  9697     041B  1303               	bcf	3,6	;RP1=0, select bank1
  9698     041C  00BB               	movwf	(efgtoa@d+1)^(0+128)
  9699     041D  1283               	bcf	3,5	;RP0=0, select bank0
  9700     041E  1303               	bcf	3,6	;RP1=0, select bank0
  9701     041F  0820               	movf	?___fltol,w
  9702     0420  1683               	bsf	3,5	;RP0=1, select bank1
  9703     0421  1303               	bcf	3,6	;RP1=0, select bank1
  9704     0422  00BA               	movwf	efgtoa@d^(0+128)
  9705     0423  2C2A               	goto	l2808
  9706     0424                     l2806:
  9707     0424  3009               	movlw	9
  9708     0425  1683               	bsf	3,5	;RP0=1, select bank1
  9709     0426  1303               	bcf	3,6	;RP1=0, select bank1
  9710     0427  00BA               	movwf	efgtoa@d^(0+128)
  9711     0428  3000               	movlw	0
  9712     0429  00BB               	movwf	(efgtoa@d^(0+128)+1)
  9713     042A                     l2808:
  9714                           
  9715                           ;C:\Program Files\Microchip\xc8\v2.46\pic\sources\c99\common\doprnt.c: 792:   {;C:\Progr
      +                          am Files\Microchip\xc8\v2.46\pic\sources\c99\common\doprnt.c: 793:             if (!pp &
      +                          & (ne < 0)) {
  9716     042A  0837               	movf	efgtoa@pp^(0+128),w
  9717     042B  1D03               	btfss	3,2
  9718     042C  2C2E               	goto	u4291
  9719     042D  2C2F               	goto	u4290
  9720     042E                     u4291:
  9721     042E  2C60               	goto	l2828
  9722     042F                     u4290:
  9723     042F                     l2810:
  9724     042F  1FB0               	btfss	(efgtoa@ne+1)^(0+128),7
  9725     0430  2C32               	goto	u4301
  9726     0431  2C33               	goto	u4300
  9727     0432                     u4301:
  9728     0432  2C60               	goto	l2828
  9729     0433                     u4300:
  9730     0433                     l2812:
  9731                           
  9732                           ;C:\Program Files\Microchip\xc8\v2.46\pic\sources\c99\common\doprnt.c: 794:             
      +                              dbuf[n++] = '.';
  9733     0433  0852               	movf	efgtoa@n^(0+128),w
  9734     0434  3E10               	addlw	(low (_dbuf| (0+256)))& (0+255)
  9735     0435  0084               	movwf	4
  9736     0436  302E               	movlw	46
  9737     0437  1783               	bsf	3,7	;select IRP bank2
  9738     0438  0080               	movwf	0
  9739     0439                     l2814:
  9740     0439  3001               	movlw	1
  9741     043A  07D2               	addwf	efgtoa@n^(0+128),f
  9742     043B  1803               	skipnc
  9743     043C  0AD3               	incf	(efgtoa@n+1)^(0+128),f
  9744     043D  3000               	movlw	0
  9745     043E  07D3               	addwf	(efgtoa@n+1)^(0+128),f
  9746     043F                     l2816:
  9747                           
  9748                           ;C:\Program Files\Microchip\xc8\v2.46\pic\sources\c99\common\doprnt.c: 795:             
      +                              --w;
  9749     043F  30FF               	movlw	255
  9750     0440  07C1               	addwf	efgtoa@w^(0+128),f
  9751     0441  1803               	skipnc
  9752     0442  0AC2               	incf	(efgtoa@w+1)^(0+128),f
  9753     0443  30FF               	movlw	255
  9754     0444  07C2               	addwf	(efgtoa@w+1)^(0+128),f
  9755     0445                     l2818:
  9756                           
  9757                           ;C:\Program Files\Microchip\xc8\v2.46\pic\sources\c99\common\doprnt.c: 796:             
      +                              pp = 1;
  9758     0445  01B7               	clrf	efgtoa@pp^(0+128)
  9759     0446  0AB7               	incf	efgtoa@pp^(0+128),f
  9760     0447  2C60               	goto	l2828
  9761     0448                     l2820:
  9762                           
  9763                           ;C:\Program Files\Microchip\xc8\v2.46\pic\sources\c99\common\doprnt.c: 799:             
      +                              dbuf[n++] = '0';
  9764     0448  0852               	movf	efgtoa@n^(0+128),w
  9765     0449  3E10               	addlw	(low (_dbuf| (0+256)))& (0+255)
  9766     044A  0084               	movwf	4
  9767     044B  3030               	movlw	48
  9768     044C  1783               	bsf	3,7	;select IRP bank2
  9769     044D  0080               	movwf	0
  9770     044E                     l2822:
  9771     044E  3001               	movlw	1
  9772     044F  07D2               	addwf	efgtoa@n^(0+128),f
  9773     0450  1803               	skipnc
  9774     0451  0AD3               	incf	(efgtoa@n+1)^(0+128),f
  9775     0452  3000               	movlw	0
  9776     0453  07D3               	addwf	(efgtoa@n+1)^(0+128),f
  9777     0454                     l2824:
  9778                           
  9779                           ;C:\Program Files\Microchip\xc8\v2.46\pic\sources\c99\common\doprnt.c: 800:             
      +                              --w;
  9780     0454  30FF               	movlw	255
  9781     0455  07C1               	addwf	efgtoa@w^(0+128),f
  9782     0456  1803               	skipnc
  9783     0457  0AC2               	incf	(efgtoa@w+1)^(0+128),f
  9784     0458  30FF               	movlw	255
  9785     0459  07C2               	addwf	(efgtoa@w+1)^(0+128),f
  9786     045A                     l2826:
  9787                           
  9788                           ;C:\Program Files\Microchip\xc8\v2.46\pic\sources\c99\common\doprnt.c: 801:             
      +                              --t;
  9789     045A  30FF               	movlw	255
  9790     045B  07B3               	addwf	efgtoa@t^(0+128),f
  9791     045C  1803               	skipnc
  9792     045D  0AB4               	incf	(efgtoa@t+1)^(0+128),f
  9793     045E  30FF               	movlw	255
  9794     045F  07B4               	addwf	(efgtoa@t+1)^(0+128),f
  9795     0460                     l2828:
  9796                           
  9797                           ;C:\Program Files\Microchip\xc8\v2.46\pic\sources\c99\common\doprnt.c: 798:             
      +                          while (t) {
  9798     0460  0833               	movf	efgtoa@t^(0+128),w
  9799     0461  0434               	iorwf	(efgtoa@t+1)^(0+128),w
  9800     0462  1D03               	btfss	3,2
  9801     0463  2C65               	goto	u4311
  9802     0464  2C66               	goto	u4310
  9803     0465                     u4311:
  9804     0465  2C48               	goto	l2820
  9805     0466                     u4310:
  9806     0466                     l2830:
  9807                           
  9808                           ;C:\Program Files\Microchip\xc8\v2.46\pic\sources\c99\common\doprnt.c: 803:             
      +                          dbuf[n++] = (char)((int)'0' + d);
  9809     0466  0852               	movf	efgtoa@n^(0+128),w
  9810     0467  3E10               	addlw	(low (_dbuf| (0+256)))& (0+255)
  9811     0468  0084               	movwf	4
  9812     0469  083A               	movf	efgtoa@d^(0+128),w
  9813     046A  3E30               	addlw	48
  9814     046B  1783               	bsf	3,7	;select IRP bank2
  9815     046C  0080               	movwf	0
  9816     046D                     l2832:
  9817     046D  3001               	movlw	1
  9818     046E  07D2               	addwf	efgtoa@n^(0+128),f
  9819     046F  1803               	skipnc
  9820     0470  0AD3               	incf	(efgtoa@n+1)^(0+128),f
  9821     0471  3000               	movlw	0
  9822     0472  07D3               	addwf	(efgtoa@n+1)^(0+128),f
  9823     0473                     l2834:
  9824                           
  9825                           ;C:\Program Files\Microchip\xc8\v2.46\pic\sources\c99\common\doprnt.c: 804:             
      +                          --w;
  9826     0473  30FF               	movlw	255
  9827     0474  07C1               	addwf	efgtoa@w^(0+128),f
  9828     0475  1803               	skipnc
  9829     0476  0AC2               	incf	(efgtoa@w+1)^(0+128),f
  9830     0477  30FF               	movlw	255
  9831     0478  07C2               	addwf	(efgtoa@w+1)^(0+128),f
  9832     0479                     l2836:
  9833                           
  9834                           ;C:\Program Files\Microchip\xc8\v2.46\pic\sources\c99\common\doprnt.c: 805:         };C:
      +                          \Program Files\Microchip\xc8\v2.46\pic\sources\c99\common\doprnt.c: 806:         h -= l*
      +                          u.f;
  9835     0479  085B               	movf	(efgtoa@u+3)^(0+128),w
  9836     047A  1283               	bcf	3,5	;RP0=0, select bank0
  9837     047B  1303               	bcf	3,6	;RP1=0, select bank0
  9838     047C  00B5               	movwf	___flmul@a+3
  9839     047D  1683               	bsf	3,5	;RP0=1, select bank1
  9840     047E  1303               	bcf	3,6	;RP1=0, select bank1
  9841     047F  085A               	movf	(efgtoa@u+2)^(0+128),w
  9842     0480  1283               	bcf	3,5	;RP0=0, select bank0
  9843     0481  1303               	bcf	3,6	;RP1=0, select bank0
  9844     0482  00B4               	movwf	___flmul@a+2
  9845     0483  1683               	bsf	3,5	;RP0=1, select bank1
  9846     0484  1303               	bcf	3,6	;RP1=0, select bank1
  9847     0485  0859               	movf	(efgtoa@u+1)^(0+128),w
  9848     0486  1283               	bcf	3,5	;RP0=0, select bank0
  9849     0487  1303               	bcf	3,6	;RP1=0, select bank0
  9850     0488  00B3               	movwf	___flmul@a+1
  9851     0489  1683               	bsf	3,5	;RP0=1, select bank1
  9852     048A  1303               	bcf	3,6	;RP1=0, select bank1
  9853     048B  0858               	movf	efgtoa@u^(0+128),w
  9854     048C  1283               	bcf	3,5	;RP0=0, select bank0
  9855     048D  1303               	bcf	3,6	;RP1=0, select bank0
  9856     048E  00B2               	movwf	___flmul@a
  9857     048F  1683               	bsf	3,5	;RP0=1, select bank1
  9858     0490  1303               	bcf	3,6	;RP1=0, select bank1
  9859     0491  0850               	movf	(efgtoa@l+3)^(0+128),w
  9860     0492  1283               	bcf	3,5	;RP0=0, select bank0
  9861     0493  1303               	bcf	3,6	;RP1=0, select bank0
  9862     0494  00B1               	movwf	___flmul@b+3
  9863     0495  1683               	bsf	3,5	;RP0=1, select bank1
  9864     0496  1303               	bcf	3,6	;RP1=0, select bank1
  9865     0497  084F               	movf	(efgtoa@l+2)^(0+128),w
  9866     0498  1283               	bcf	3,5	;RP0=0, select bank0
  9867     0499  1303               	bcf	3,6	;RP1=0, select bank0
  9868     049A  00B0               	movwf	___flmul@b+2
  9869     049B  1683               	bsf	3,5	;RP0=1, select bank1
  9870     049C  1303               	bcf	3,6	;RP1=0, select bank1
  9871     049D  084E               	movf	(efgtoa@l+1)^(0+128),w
  9872     049E  1283               	bcf	3,5	;RP0=0, select bank0
  9873     049F  1303               	bcf	3,6	;RP1=0, select bank0
  9874     04A0  00AF               	movwf	___flmul@b+1
  9875     04A1  1683               	bsf	3,5	;RP0=1, select bank1
  9876     04A2  1303               	bcf	3,6	;RP1=0, select bank1
  9877     04A3  084D               	movf	efgtoa@l^(0+128),w
  9878     04A4  1283               	bcf	3,5	;RP0=0, select bank0
  9879     04A5  1303               	bcf	3,6	;RP1=0, select bank0
  9880     04A6  00AE               	movwf	___flmul@b
  9881     04A7  120A  158A  24BB  120A  118A  	fcall	___flmul
  9882     04AC  1283               	bcf	3,5	;RP0=0, select bank0
  9883     04AD  1303               	bcf	3,6	;RP1=0, select bank0
  9884     04AE  0831               	movf	?___flmul+3,w
  9885     04AF  00CB               	movwf	___flsub@a+3
  9886     04B0  0830               	movf	?___flmul+2,w
  9887     04B1  00CA               	movwf	___flsub@a+2
  9888     04B2  082F               	movf	?___flmul+1,w
  9889     04B3  00C9               	movwf	___flsub@a+1
  9890     04B4  082E               	movf	?___flmul,w
  9891     04B5  00C8               	movwf	___flsub@a
  9892     04B6  1683               	bsf	3,5	;RP0=1, select bank1
  9893     04B7  1303               	bcf	3,6	;RP1=0, select bank1
  9894     04B8  084C               	movf	(efgtoa@h+3)^(0+128),w
  9895     04B9  1283               	bcf	3,5	;RP0=0, select bank0
  9896     04BA  1303               	bcf	3,6	;RP1=0, select bank0
  9897     04BB  00CF               	movwf	___flsub@b+3
  9898     04BC  1683               	bsf	3,5	;RP0=1, select bank1
  9899     04BD  1303               	bcf	3,6	;RP1=0, select bank1
  9900     04BE  084B               	movf	(efgtoa@h+2)^(0+128),w
  9901     04BF  1283               	bcf	3,5	;RP0=0, select bank0
  9902     04C0  1303               	bcf	3,6	;RP1=0, select bank0
  9903     04C1  00CE               	movwf	___flsub@b+2
  9904     04C2  1683               	bsf	3,5	;RP0=1, select bank1
  9905     04C3  1303               	bcf	3,6	;RP1=0, select bank1
  9906     04C4  084A               	movf	(efgtoa@h+1)^(0+128),w
  9907     04C5  1283               	bcf	3,5	;RP0=0, select bank0
  9908     04C6  1303               	bcf	3,6	;RP1=0, select bank0
  9909     04C7  00CD               	movwf	___flsub@b+1
  9910     04C8  1683               	bsf	3,5	;RP0=1, select bank1
  9911     04C9  1303               	bcf	3,6	;RP1=0, select bank1
  9912     04CA  0849               	movf	efgtoa@h^(0+128),w
  9913     04CB  1283               	bcf	3,5	;RP0=0, select bank0
  9914     04CC  1303               	bcf	3,6	;RP1=0, select bank0
  9915     04CD  00CC               	movwf	___flsub@b
  9916     04CE  160A  158A  2652  120A  118A  	fcall	___flsub
  9917     04D3  1283               	bcf	3,5	;RP0=0, select bank0
  9918     04D4  1303               	bcf	3,6	;RP1=0, select bank0
  9919     04D5  084B               	movf	?___flsub+3,w
  9920     04D6  1683               	bsf	3,5	;RP0=1, select bank1
  9921     04D7  1303               	bcf	3,6	;RP1=0, select bank1
  9922     04D8  00CC               	movwf	(efgtoa@h+3)^(0+128)
  9923     04D9  1283               	bcf	3,5	;RP0=0, select bank0
  9924     04DA  1303               	bcf	3,6	;RP1=0, select bank0
  9925     04DB  084A               	movf	?___flsub+2,w
  9926     04DC  1683               	bsf	3,5	;RP0=1, select bank1
  9927     04DD  1303               	bcf	3,6	;RP1=0, select bank1
  9928     04DE  00CB               	movwf	(efgtoa@h+2)^(0+128)
  9929     04DF  1283               	bcf	3,5	;RP0=0, select bank0
  9930     04E0  1303               	bcf	3,6	;RP1=0, select bank0
  9931     04E1  0849               	movf	?___flsub+1,w
  9932     04E2  1683               	bsf	3,5	;RP0=1, select bank1
  9933     04E3  1303               	bcf	3,6	;RP1=0, select bank1
  9934     04E4  00CA               	movwf	(efgtoa@h+1)^(0+128)
  9935     04E5  1283               	bcf	3,5	;RP0=0, select bank0
  9936     04E6  1303               	bcf	3,6	;RP1=0, select bank0
  9937     04E7  0848               	movf	?___flsub,w
  9938     04E8  1683               	bsf	3,5	;RP0=1, select bank1
  9939     04E9  1303               	bcf	3,6	;RP1=0, select bank1
  9940     04EA  00C9               	movwf	efgtoa@h^(0+128)
  9941     04EB                     l2838:
  9942                           
  9943                           ;C:\Program Files\Microchip\xc8\v2.46\pic\sources\c99\common\doprnt.c: 807:         u.f 
      +                          = u.f/10.0;
  9944     04EB  3041               	movlw	65
  9945     04EC  1283               	bcf	3,5	;RP0=0, select bank0
  9946     04ED  1303               	bcf	3,6	;RP1=0, select bank0
  9947     04EE  00CB               	movwf	___fldiv@a+3
  9948     04EF  3020               	movlw	32
  9949     04F0  00CA               	movwf	___fldiv@a+2
  9950     04F1  3000               	movlw	0
  9951     04F2  00C9               	movwf	___fldiv@a+1
  9952     04F3  3000               	movlw	0
  9953     04F4  00C8               	movwf	___fldiv@a
  9954     04F5  1683               	bsf	3,5	;RP0=1, select bank1
  9955     04F6  1303               	bcf	3,6	;RP1=0, select bank1
  9956     04F7  085B               	movf	(efgtoa@u+3)^(0+128),w
  9957     04F8  1283               	bcf	3,5	;RP0=0, select bank0
  9958     04F9  1303               	bcf	3,6	;RP1=0, select bank0
  9959     04FA  00CF               	movwf	___fldiv@b+3
  9960     04FB  1683               	bsf	3,5	;RP0=1, select bank1
  9961     04FC  1303               	bcf	3,6	;RP1=0, select bank1
  9962     04FD  085A               	movf	(efgtoa@u+2)^(0+128),w
  9963     04FE  1283               	bcf	3,5	;RP0=0, select bank0
  9964     04FF  1303               	bcf	3,6	;RP1=0, select bank0
  9965     0500  00CE               	movwf	___fldiv@b+2
  9966     0501  1683               	bsf	3,5	;RP0=1, select bank1
  9967     0502  1303               	bcf	3,6	;RP1=0, select bank1
  9968     0503  0859               	movf	(efgtoa@u+1)^(0+128),w
  9969     0504  1283               	bcf	3,5	;RP0=0, select bank0
  9970     0505  1303               	bcf	3,6	;RP1=0, select bank0
  9971     0506  00CD               	movwf	___fldiv@b+1
  9972     0507  1683               	bsf	3,5	;RP0=1, select bank1
  9973     0508  1303               	bcf	3,6	;RP1=0, select bank1
  9974     0509  0858               	movf	efgtoa@u^(0+128),w
  9975     050A  1283               	bcf	3,5	;RP0=0, select bank0
  9976     050B  1303               	bcf	3,6	;RP1=0, select bank0
  9977     050C  00CC               	movwf	___fldiv@b
  9978     050D  120A  118A  25D9  120A  118A  	fcall	___fldiv
  9979     0512  1283               	bcf	3,5	;RP0=0, select bank0
  9980     0513  1303               	bcf	3,6	;RP1=0, select bank0
  9981     0514  084B               	movf	?___fldiv+3,w
  9982     0515  1683               	bsf	3,5	;RP0=1, select bank1
  9983     0516  1303               	bcf	3,6	;RP1=0, select bank1
  9984     0517  00DB               	movwf	(efgtoa@u+3)^(0+128)
  9985     0518  1283               	bcf	3,5	;RP0=0, select bank0
  9986     0519  1303               	bcf	3,6	;RP1=0, select bank0
  9987     051A  084A               	movf	?___fldiv+2,w
  9988     051B  1683               	bsf	3,5	;RP0=1, select bank1
  9989     051C  1303               	bcf	3,6	;RP1=0, select bank1
  9990     051D  00DA               	movwf	(efgtoa@u+2)^(0+128)
  9991     051E  1283               	bcf	3,5	;RP0=0, select bank0
  9992     051F  1303               	bcf	3,6	;RP1=0, select bank0
  9993     0520  0849               	movf	?___fldiv+1,w
  9994     0521  1683               	bsf	3,5	;RP0=1, select bank1
  9995     0522  1303               	bcf	3,6	;RP1=0, select bank1
  9996     0523  00D9               	movwf	(efgtoa@u+1)^(0+128)
  9997     0524  1283               	bcf	3,5	;RP0=0, select bank0
  9998     0525  1303               	bcf	3,6	;RP1=0, select bank0
  9999     0526  0848               	movf	?___fldiv,w
 10000     0527  1683               	bsf	3,5	;RP0=1, select bank1
 10001     0528  1303               	bcf	3,6	;RP1=0, select bank1
 10002     0529  00D8               	movwf	efgtoa@u^(0+128)
 10003     052A                     l2840:
 10004                           
 10005                           ;C:\Program Files\Microchip\xc8\v2.46\pic\sources\c99\common\doprnt.c: 808:         --ne
      +                          ;
 10006     052A  30FF               	movlw	255
 10007     052B  07AF               	addwf	efgtoa@ne^(0+128),f
 10008     052C  1803               	skipnc
 10009     052D  0AB0               	incf	(efgtoa@ne+1)^(0+128),f
 10010     052E  30FF               	movlw	255
 10011     052F  07B0               	addwf	(efgtoa@ne+1)^(0+128),f
 10012     0530                     l2842:
 10013                           
 10014                           ;C:\Program Files\Microchip\xc8\v2.46\pic\sources\c99\common\doprnt.c: 809:         ++i;
 10015     0530  3001               	movlw	1
 10016     0531  07C7               	addwf	efgtoa@i^(0+128),f
 10017     0532  1803               	skipnc
 10018     0533  0AC8               	incf	(efgtoa@i+1)^(0+128),f
 10019     0534  3000               	movlw	0
 10020     0535  07C8               	addwf	(efgtoa@i+1)^(0+128),f
 10021     0536                     l2844:
 10022                           
 10023                           ;C:\Program Files\Microchip\xc8\v2.46\pic\sources\c99\common\doprnt.c: 779:     while ((
      +                          i < m) && (n < (80 - 5))) {
 10024     0536  0848               	movf	(efgtoa@i+1)^(0+128),w
 10025     0537  3A80               	xorlw	128
 10026     0538  1283               	bcf	3,5	;RP0=0, select bank0
 10027     0539  1303               	bcf	3,6	;RP1=0, select bank0
 10028     053A  00EC               	movwf	??_efgtoa
 10029     053B  1683               	bsf	3,5	;RP0=1, select bank1
 10030     053C  1303               	bcf	3,6	;RP1=0, select bank1
 10031     053D  083D               	movf	(efgtoa@m+1)^(0+128),w
 10032     053E  3A80               	xorlw	128
 10033     053F  1283               	bcf	3,5	;RP0=0, select bank0
 10034     0540  1303               	bcf	3,6	;RP1=0, select bank0
 10035     0541  026C               	subwf	??_efgtoa,w
 10036     0542  1D03               	skipz
 10037     0543  2D48               	goto	u4325
 10038     0544  1683               	bsf	3,5	;RP0=1, select bank1
 10039     0545  1303               	bcf	3,6	;RP1=0, select bank1
 10040     0546  083C               	movf	efgtoa@m^(0+128),w
 10041     0547  0247               	subwf	efgtoa@i^(0+128),w
 10042     0548                     u4325:
 10043     0548  1803               	skipnc
 10044     0549  2D4B               	goto	u4321
 10045     054A  2D4C               	goto	u4320
 10046     054B                     u4321:
 10047     054B  2D5B               	goto	l2848
 10048     054C                     u4320:
 10049     054C                     l2846:
 10050     054C  1683               	bsf	3,5	;RP0=1, select bank1
 10051     054D  1303               	bcf	3,6	;RP1=0, select bank1
 10052     054E  0853               	movf	(efgtoa@n+1)^(0+128),w
 10053     054F  3A80               	xorlw	128
 10054     0550  00FF               	movwf	btemp+1
 10055     0551  3080               	movlw	128
 10056     0552  027F               	subwf	btemp+1,w
 10057     0553  1D03               	skipz
 10058     0554  2D57               	goto	u4335
 10059     0555  304B               	movlw	75
 10060     0556  0252               	subwf	efgtoa@n^(0+128),w
 10061     0557                     u4335:
 10062     0557  1C03               	skipc
 10063     0558  2D5A               	goto	u4331
 10064     0559  2D5B               	goto	u4330
 10065     055A                     u4331:
 10066     055A  2B74               	goto	l2802
 10067     055B                     u4330:
 10068     055B                     l2848:
 10069                           
 10070                           ;C:\Program Files\Microchip\xc8\v2.46\pic\sources\c99\common\doprnt.c: 816:  i = sizeof(
      +                          dbuf) - 1;
 10071     055B  304F               	movlw	79
 10072     055C  1683               	bsf	3,5	;RP0=1, select bank1
 10073     055D  1303               	bcf	3,6	;RP1=0, select bank1
 10074     055E  00C7               	movwf	efgtoa@i^(0+128)
 10075     055F  3000               	movlw	0
 10076     0560  00C8               	movwf	(efgtoa@i^(0+128)+1)
 10077     0561                     l2850:
 10078                           
 10079                           ;C:\Program Files\Microchip\xc8\v2.46\pic\sources\c99\common\doprnt.c: 817:     dbuf[i] 
      +                          = '\0';
 10080     0561  0847               	movf	efgtoa@i^(0+128),w
 10081     0562  3E10               	addlw	(low (_dbuf| (0+256)))& (0+255)
 10082     0563  0084               	movwf	4
 10083     0564  1783               	bsf	3,7	;select IRP bank2
 10084     0565  0180               	clrf	0
 10085     0566                     l2852:
 10086                           
 10087                           ;C:\Program Files\Microchip\xc8\v2.46\pic\sources\c99\common\doprnt.c: 848:  memcpy(&dbu
      +                          f[i-n], &dbuf[0], (size_t)n);
 10088     0566  3010               	movlw	(low (_dbuf| (0+256)))& (0+255)
 10089     0567  1283               	bcf	3,5	;RP0=0, select bank0
 10090     0568  1303               	bcf	3,6	;RP1=0, select bank0
 10091     0569  00A0               	movwf	memcpy@s1
 10092     056A  1683               	bsf	3,5	;RP0=1, select bank1
 10093     056B  1303               	bcf	3,6	;RP1=0, select bank1
 10094     056C  0853               	movf	(efgtoa@n+1)^(0+128),w
 10095     056D  1283               	bcf	3,5	;RP0=0, select bank0
 10096     056E  1303               	bcf	3,6	;RP1=0, select bank0
 10097     056F  00A2               	movwf	memcpy@n+1
 10098     0570  1683               	bsf	3,5	;RP0=1, select bank1
 10099     0571  1303               	bcf	3,6	;RP1=0, select bank1
 10100     0572  0852               	movf	efgtoa@n^(0+128),w
 10101     0573  1283               	bcf	3,5	;RP0=0, select bank0
 10102     0574  1303               	bcf	3,6	;RP1=0, select bank0
 10103     0575  00A1               	movwf	memcpy@n
 10104     0576  3010               	movlw	(low (_dbuf| (0+256)))& (0+255)
 10105     0577  00EC               	movwf	??_efgtoa
 10106     0578  1683               	bsf	3,5	;RP0=1, select bank1
 10107     0579  1303               	bcf	3,6	;RP1=0, select bank1
 10108     057A  0852               	movf	efgtoa@n^(0+128),w
 10109     057B  1283               	bcf	3,5	;RP0=0, select bank0
 10110     057C  1303               	bcf	3,6	;RP1=0, select bank0
 10111     057D  02EC               	subwf	??_efgtoa,f
 10112     057E  1683               	bsf	3,5	;RP0=1, select bank1
 10113     057F  1303               	bcf	3,6	;RP1=0, select bank1
 10114     0580  0847               	movf	efgtoa@i^(0+128),w
 10115     0581  1283               	bcf	3,5	;RP0=0, select bank0
 10116     0582  1303               	bcf	3,6	;RP1=0, select bank0
 10117     0583  076C               	addwf	??_efgtoa,w
 10118     0584  160A  158A  269D  120A  118A  	fcall	_memcpy
 10119     0589                     l2854:
 10120                           
 10121                           ;C:\Program Files\Microchip\xc8\v2.46\pic\sources\c99\common\doprnt.c: 849:  n = i-n;
 10122     0589  1683               	bsf	3,5	;RP0=1, select bank1
 10123     058A  1303               	bcf	3,6	;RP1=0, select bank1
 10124     058B  0852               	movf	efgtoa@n^(0+128),w
 10125     058C  0247               	subwf	efgtoa@i^(0+128),w
 10126     058D  00D2               	movwf	efgtoa@n^(0+128)
 10127     058E  0853               	movf	(efgtoa@n+1)^(0+128),w
 10128     058F  1C03               	skipc
 10129     0590  0A53               	incf	(efgtoa@n+1)^(0+128),w
 10130     0591  0248               	subwf	(efgtoa@i+1)^(0+128),w
 10131     0592  00D3               	movwf	(efgtoa@n+1)^(0+128)
 10132     0593                     l2856:
 10133                           
 10134                           ;C:\Program Files\Microchip\xc8\v2.46\pic\sources\c99\common\doprnt.c: 850:  i = sign ==
      +                           0 ? 0 : 1;
 10135     0593  0851               	movf	efgtoa@sign^(0+128),w
 10136     0594  1D03               	btfss	3,2
 10137     0595  2D97               	goto	u4341
 10138     0596  2D99               	goto	u4340
 10139     0597                     u4341:
 10140     0597  3001               	movlw	1
 10141     0598  2D9A               	goto	u4350
 10142     0599                     u4340:
 10143     0599  3000               	movlw	0
 10144     059A                     u4350:
 10145     059A  1283               	bcf	3,5	;RP0=0, select bank0
 10146     059B  1303               	bcf	3,6	;RP1=0, select bank0
 10147     059C  00EC               	movwf	??_efgtoa
 10148     059D  01ED               	clrf	??_efgtoa+1
 10149     059E  086C               	movf	??_efgtoa,w
 10150     059F  1683               	bsf	3,5	;RP0=1, select bank1
 10151     05A0  1303               	bcf	3,6	;RP1=0, select bank1
 10152     05A1  00C7               	movwf	efgtoa@i^(0+128)
 10153     05A2  1283               	bcf	3,5	;RP0=0, select bank0
 10154     05A3  1303               	bcf	3,6	;RP1=0, select bank0
 10155     05A4  086D               	movf	??_efgtoa+1,w
 10156     05A5  1683               	bsf	3,5	;RP0=1, select bank1
 10157     05A6  1303               	bcf	3,6	;RP1=0, select bank1
 10158     05A7  00C8               	movwf	(efgtoa@i+1)^(0+128)
 10159     05A8                     l2858:
 10160                           
 10161                           ;C:\Program Files\Microchip\xc8\v2.46\pic\sources\c99\common\doprnt.c: 861:  if (sign) {
 10162     05A8  0851               	movf	efgtoa@sign^(0+128),w
 10163     05A9  1903               	btfsc	3,2
 10164     05AA  2DAC               	goto	u4361
 10165     05AB  2DAD               	goto	u4360
 10166     05AC                     u4361:
 10167     05AC  2DB9               	goto	l2862
 10168     05AD                     u4360:
 10169     05AD                     l2860:
 10170                           
 10171                           ;C:\Program Files\Microchip\xc8\v2.46\pic\sources\c99\common\doprnt.c: 862:   dbuf[--n] 
      +                          = sign;
 10172     05AD  30FF               	movlw	255
 10173     05AE  07D2               	addwf	efgtoa@n^(0+128),f
 10174     05AF  1803               	skipnc
 10175     05B0  0AD3               	incf	(efgtoa@n+1)^(0+128),f
 10176     05B1  30FF               	movlw	255
 10177     05B2  07D3               	addwf	(efgtoa@n+1)^(0+128),f
 10178     05B3  0852               	movf	efgtoa@n^(0+128),w
 10179     05B4  3E10               	addlw	(low (_dbuf| (0+256)))& (0+255)
 10180     05B5  0084               	movwf	4
 10181     05B6  0851               	movf	efgtoa@sign^(0+128),w
 10182     05B7  1783               	bsf	3,7	;select IRP bank2
 10183     05B8  0080               	movwf	0
 10184     05B9                     l2862:
 10185                           
 10186                           ;C:\Program Files\Microchip\xc8\v2.46\pic\sources\c99\common\doprnt.c: 864:  w -= i;
 10187     05B9  0847               	movf	efgtoa@i^(0+128),w
 10188     05BA  02C1               	subwf	efgtoa@w^(0+128),f
 10189     05BB  0848               	movf	(efgtoa@i+1)^(0+128),w
 10190     05BC  1C03               	skipc
 10191     05BD  03C2               	decf	(efgtoa@w+1)^(0+128),f
 10192     05BE  02C2               	subwf	(efgtoa@w+1)^(0+128),f
 10193     05BF                     l2864:
 10194                           
 10195                           ;C:\Program Files\Microchip\xc8\v2.46\pic\sources\c99\common\doprnt.c: 867:     return (
      +                          void) pad(fp, &dbuf[n], w);
 10196     05BF  0852               	movf	efgtoa@n^(0+128),w
 10197     05C0  3E10               	addlw	(low (_dbuf| (0+256)))& (0+255)
 10198     05C1  1283               	bcf	3,5	;RP0=0, select bank0
 10199     05C2  1303               	bcf	3,6	;RP1=0, select bank0
 10200     05C3  00AF               	movwf	pad@buf
 10201     05C4  1683               	bsf	3,5	;RP0=1, select bank1
 10202     05C5  1303               	bcf	3,6	;RP1=0, select bank1
 10203     05C6  0842               	movf	(efgtoa@w+1)^(0+128),w
 10204     05C7  1283               	bcf	3,5	;RP0=0, select bank0
 10205     05C8  1303               	bcf	3,6	;RP1=0, select bank0
 10206     05C9  00B1               	movwf	pad@p+1
 10207     05CA  1683               	bsf	3,5	;RP0=1, select bank1
 10208     05CB  1303               	bcf	3,6	;RP1=0, select bank1
 10209     05CC  0841               	movf	efgtoa@w^(0+128),w
 10210     05CD  1283               	bcf	3,5	;RP0=0, select bank0
 10211     05CE  1303               	bcf	3,6	;RP1=0, select bank0
 10212     05CF  00B0               	movwf	pad@p
 10213     05D0  1683               	bsf	3,5	;RP0=1, select bank1
 10214     05D1  1303               	bcf	3,6	;RP1=0, select bank1
 10215     05D2  083E               	movf	efgtoa@fp^(0+128),w
 10216     05D3  160A  158A  276C  120A  118A  	fcall	_pad
 10217     05D8                     l660:
 10218     05D8  0008               	return
 10219     05D9                     __end_of_efgtoa:

Data Sizes:
    Strings     47
    Constant    0
    Data        0
    BSS         93
    Persistent  0
    Stack       0

Auto Spaces:
    Space          Size  Autos    Used
    COMMON           14      9      14
    BANK0            80     80      80
    BANK1            80     80      80
    BANK3            96     55      63
    BANK2            96      0      80

Pointer List with Targets:

    efgtoa@fp	PTR struct _IO_FILE size(1) Largest target is 11
		 -> sprintf@f(BANK3[11]), 

    f$.$buffer	PTR unsigned char  size(1) Largest target is 0

    f$.$source	PTR const unsigned char  size(1) Largest target is 0

    fputc@fp	PTR struct _IO_FILE size(1) Largest target is 11
		 -> sprintf@f(BANK3[11]), 

    fputc@fp$.$buffer	PTR unsigned char  size(1) Largest target is 0

    fputc@fp$.$source	PTR const unsigned char  size(1) Largest target is 0

    fputs@fp	PTR struct _IO_FILE size(1) Largest target is 11
		 -> sprintf@f(BANK3[11]), 

    fputs@s	PTR const unsigned char  size(1) Largest target is 80
		 -> dbuf(BANK2[80]), 

    memcpy@d	PTR unsigned char  size(1) Largest target is 80
		 -> dbuf(BANK2[80]), 

    memcpy@d1	PTR void  size(1) Largest target is 80
		 -> dbuf(BANK2[80]), 

    memcpy@s	PTR const unsigned char  size(1) Largest target is 80
		 -> dbuf(BANK2[80]), 

    memcpy@s1	PTR const void  size(1) Largest target is 80
		 -> dbuf(BANK2[80]), 

    pad@buf	PTR unsigned char  size(1) Largest target is 80
		 -> dbuf(BANK2[80]), 

    pad@fp	PTR struct _IO_FILE size(1) Largest target is 11
		 -> sprintf@f(BANK3[11]), 

    read_prec_or_width@ap	PTR PTR void [1] size(1) Largest target is 1
		 -> sprintf@ap(BANK3[1]), 

    read_prec_or_width@fmt	PTR PTR const unsigned char  size(1) Largest target is 1
		 -> vfprintf@cfmt(BANK1[1]), 

    S736$buffer	PTR unsigned char  size(1) Largest target is 0

    S736$source	PTR const unsigned char  size(1) Largest target is 0

    sp__memcpy	PTR void  size(1) Largest target is 80
		 -> dbuf(BANK2[80]), 

    sp__strcpy	PTR unsigned char  size(1) Largest target is 80
		 -> dbuf(BANK2[80]), 

    sprintf@ap	PTR void [1] size(1) Largest target is 2
		 -> ?_sprintf(BANK1[2]), 

    sprintf@fmt	PTR const unsigned char  size(1) Largest target is 18
		 -> STR_1(CODE[18]), 

    sprintf@s	PTR unsigned char  size(1) Largest target is 32
		 -> main@buffer(BANK3[32]), 

    strcpy@d	PTR unsigned char  size(1) Largest target is 80
		 -> dbuf(BANK2[80]), 

    strcpy@dest	PTR unsigned char  size(1) Largest target is 80
		 -> dbuf(BANK2[80]), 

    strcpy@src	PTR const unsigned char  size(1) Largest target is 4
		 -> STR_3(CODE[4]), STR_6(CODE[4]), 

    UART_send_string@str	PTR const unsigned char  size(2) Largest target is 32
		 -> main@buffer(BANK3[32]), STR_2(CODE[21]), 

    vfpfcnvrt@ap	PTR PTR void  size(1) Largest target is 1
		 -> sprintf@ap(BANK3[1]), 

    vfpfcnvrt@cp	PTR unsigned char  size(1) Largest target is 18
		 -> STR_1(CODE[18]), 

    vfpfcnvrt@fmt	PTR PTR unsigned char  size(1) Largest target is 1
		 -> vfprintf@cfmt(BANK1[1]), 

    vfpfcnvrt@fp	PTR struct _IO_FILE size(1) Largest target is 11
		 -> sprintf@f(BANK3[11]), 

    vfprintf@ap	PTR PTR void  size(1) Largest target is 1
		 -> sprintf@ap(BANK3[1]), 

    vfprintf@cfmt	PTR unsigned char  size(1) Largest target is 18
		 -> STR_1(CODE[18]), 

    vfprintf@fmt	PTR const unsigned char  size(1) Largest target is 18
		 -> STR_1(CODE[18]), 

    vfprintf@fp	PTR struct _IO_FILE size(1) Largest target is 11
		 -> sprintf@f(BANK3[11]), 


Critical Paths under _main in COMMON

    None.

Critical Paths under _ISR in COMMON

    _ISR->i1_UART_send_string

Critical Paths under _main in BANK0

    _vfpfcnvrt->_efgtoa
    _read_prec_or_width->___wmul
    _efgtoa->_floorf
    _pad->_fputs
    _fputs->_fputc
    _floorf->___fldiv
    ___flsub->___flmul
    ___flmul->___xxtofl
    ___flge->___flmul
    ___fldiv->___flmul

Critical Paths under _ISR in BANK0

    None.

Critical Paths under _main in BANK1

    _main->_sprintf
    _sprintf->_vfprintf
    _vfprintf->_vfpfcnvrt
    _vfpfcnvrt->_efgtoa
    _efgtoa->_floorf

Critical Paths under _ISR in BANK1

    None.

Critical Paths under _main in BANK3

    _main->_sprintf

Critical Paths under _ISR in BANK3

    None.

Critical Paths under _main in BANK2

    None.

Critical Paths under _ISR in BANK2

    None.

Call Graph Tables:

 ---------------------------------------------------------------------------------
 (Depth) Function   	        Calls       Base Space   Used Autos Params    Refs
 ---------------------------------------------------------------------------------
 (0) _main                                                41    41      0   27136
                                             14 BANK3     41    41      0
                   _UART_send_string
                            ___fldiv
                            ___flmul
                           ___xxtofl
                        _init_config
                            _sprintf
 ---------------------------------------------------------------------------------
 (1) _sprintf                                             21    16      5   21105
                                             75 BANK1      5     0      5
                                              0 BANK3     14    14      0
                           _vfprintf
 ---------------------------------------------------------------------------------
 (2) _vfprintf                                             4     2      2   20793
                                             71 BANK1      4     2      2
                          _vfpfcnvrt
 ---------------------------------------------------------------------------------
 (3) _vfpfcnvrt                                           12    10      2   20477
                                             60 BANK1     11     9      2
                             _efgtoa
                              _fputc
                 _read_prec_or_width
 ---------------------------------------------------------------------------------
 (4) _read_prec_or_width                                   6     4      2     533
                                              6 BANK0      6     4      2
                             ___wmul
 ---------------------------------------------------------------------------------
 (5) ___wmul                                               6     2      4     244
                                              0 BANK0      6     2      4
 ---------------------------------------------------------------------------------
 (4) _efgtoa                                              55    50      5   18564
                                             76 BANK0      4     4      0
                                             10 BANK1     50    45      5
                            ___fladd
                            ___fldiv
                             ___fleq
                             ___flge
                            ___flmul
                            ___flneg
                            ___flsub
                            ___fltol
                      ___fpclassifyf
                             _floorf
                               _labs
                             _memcpy
                                _pad
                             _strcpy
 ---------------------------------------------------------------------------------
 (5) _strcpy                                               3     2      1     291
                                              0 BANK0      3     2      1
 ---------------------------------------------------------------------------------
 (5) _pad                                                  7     4      3    2260
                                             15 BANK0      7     4      3
                              _fputc
                              _fputs
 ---------------------------------------------------------------------------------
 (6) _fputs                                                7     6      1     888
                                              8 BANK0      7     6      1
                              _fputc
 ---------------------------------------------------------------------------------
 (4) _fputc                                                8     5      3     682
                                              0 BANK0      8     5      3
                              _putch
 ---------------------------------------------------------------------------------
 (5) _putch                                                1     1      0       0
 ---------------------------------------------------------------------------------
 (5) _memcpy                                               7     4      3     328
                                              0 BANK0      7     4      3
 ---------------------------------------------------------------------------------
 (5) _labs                                                 4     0      4     294
                                              0 BANK0      4     0      4
 ---------------------------------------------------------------------------------
 (5) _floorf                                              20    16      4     490
                                             66 BANK0     10     6      4
                                              0 BANK1     10    10      0
                            ___fldiv (ARG)
 ---------------------------------------------------------------------------------
 (5) ___fpclassifyf                                       16    12      4     287
                                              0 BANK0     16    12      4
 ---------------------------------------------------------------------------------
 (5) ___fltol                                             10     6      4     457
                                              0 BANK0     10     6      4
 ---------------------------------------------------------------------------------
 (5) ___flsub                                              8     0      8    2637
                                             40 BANK0      8     0      8
                            ___fladd
                            ___flmul (ARG)
 ---------------------------------------------------------------------------------
 (6) ___fladd                                             20    12      8    2288
                                              0 BANK0     20    12      8
 ---------------------------------------------------------------------------------
 (5) ___flneg                                              4     0      4     121
                                              0 BANK0      4     0      4
 ---------------------------------------------------------------------------------
 (5) ___flmul                                             26    18      8    3329
                                             14 BANK0     26    18      8
                          __Umul8_16
                           ___xxtofl (ARG)
 ---------------------------------------------------------------------------------
 (6) __Umul8_16                                            9     7      2     799
                                              0 BANK0      9     7      2
 ---------------------------------------------------------------------------------
 (5) ___flge                                              12     4      8     942
                                             40 BANK0     12     4      8
                            ___flmul (ARG)
 ---------------------------------------------------------------------------------
 (5) ___fleq                                              12     4      8     394
                                              0 BANK0     12     4      8
 ---------------------------------------------------------------------------------
 (5) ___fldiv                                             26    18      8    2033
                                             40 BANK0     26    18      8
                            ___flmul (ARG)
                           ___xxtofl (ARG)
 ---------------------------------------------------------------------------------
 (1) _init_config                                          0     0      0       0
 ---------------------------------------------------------------------------------
 (1) ___xxtofl                                            14    10      4     398
                                              0 BANK0     14    10      4
 ---------------------------------------------------------------------------------
 (1) _UART_send_string                                     2     0      2     171
                                              0 BANK0      2     0      2
 ---------------------------------------------------------------------------------
 Estimated maximum stack depth 6
 ---------------------------------------------------------------------------------
 (Depth) Function   	        Calls       Base Space   Used Autos Params    Refs
 ---------------------------------------------------------------------------------
 (9) _ISR                                                  7     7      0      71
                                              2 COMMON     7     7      0
                 i1_UART_send_string
 ---------------------------------------------------------------------------------
 (11) i1_UART_send_string                                  2     0      2      71
                                              0 COMMON     2     0      2
 ---------------------------------------------------------------------------------
 Estimated maximum stack depth 11
 ---------------------------------------------------------------------------------

 Call Graph Graphs:

 _main (ROOT)
   _UART_send_string
   ___fldiv
     ___flmul (ARG)
       __Umul8_16
       ___xxtofl (ARG)
     ___xxtofl (ARG)
   ___flmul
   ___xxtofl
   _init_config
   _sprintf
     _vfprintf
       _vfpfcnvrt
         _efgtoa
           ___fladd
           ___fldiv
           ___fleq
           ___flge
             ___flmul (ARG)
           ___flmul
           ___flneg
           ___flsub
             ___fladd
             ___flmul (ARG)
           ___fltol
           ___fpclassifyf
           _floorf
             ___fldiv (ARG)
           _labs
           _memcpy
           _pad
             _fputc
               _putch
             _fputs
               _fputc
           _strcpy
         _fputc
         _read_prec_or_width
           ___wmul

 _ISR (ROOT)
   i1_UART_send_string

 Address spaces:
Name               Size   Autos  Total    Cost      Usage
BITCOMMON            E      0       0       0        0.0%
EEDATA             100      0       0       0        0.0%
NULL                 0      0       0       0        0.0%
CODE                 0      0       0       0        0.0%
COMMON               E      9       E       1      100.0%
BITSFR0              0      0       0       1        0.0%
SFR0                 0      0       0       1        0.0%
BITSFR1              0      0       0       2        0.0%
SFR1                 0      0       0       2        0.0%
STACK                0      0       0       2        0.0%
ABS                  0      0     13D       3        0.0%
BITBANK0            50      0       0       4        0.0%
BITSFR3              0      0       0       4        0.0%
SFR3                 0      0       0       4        0.0%
BANK0               50     50      50       5      100.0%
BITSFR2              0      0       0       5        0.0%
SFR2                 0      0       0       5        0.0%
BITBANK1            50      0       0       6        0.0%
BANK1               50     50      50       7      100.0%
BITBANK3            60      0       0       8        0.0%
BANK3               60     37      3F       9       65.6%
BITBANK2            60      0       0      10        0.0%
BANK2               60      0      50      11       83.3%
DATA                 0      0     13D      12        0.0%


Microchip Technology PIC Macro Assembler V2.46 build 20240104201356 
Symbol Table                                                                                   Fri May 24 08:48:03 2024

              ___fldiv@aexp 0061                ___fldiv@bexp 0060                           pc 0002  
              ___fldiv@sign 0059                          l54 1E0F                          l46 12AD  
                        l63 1F41                          l59 1F19                          fsr 0004  
       ___wmul@multiplicand 0022         __Umul8_16@word_mpld 0026                         l330 07F7  
                       l155 1E84                         l324 07C6                         l325 07E2  
                       l341 11C7                         l333 1142                         l157 1E9C  
                       l502 1E75                         l512 062F                         l336 11AE  
                       l345 1DBA                         l610 1257                         l514 07A7  
                       l460 1686                         l356 0863                         l349 0878  
                       l534 0793                         l462 165F                         l359 0878  
                       l528 0721                         l552 0FFF                         l456 1603  
                       l609 124B                         l481 1773                         l802 1DEE  
                       l618 1E51                         l571 1EDB                         l660 05D8  
                       l573 1EED                         l477 174F                         l469 17FF  
                       l645 1F75                         l709 1096                         l558 0F6F  
                       l487 1795                         l752 08EA                         l736 1E30  
                       l753 0A2B                         l649 1FA5                         l657 14D0  
                       l729 144A                         l746 1123                         l499 17FF  
                       l596 11EC                         l676 0CA7                         l757 0A13  
                       l773 1EC4                         l598 1281                         l686 0360  
                       l767 1DD1                         l785 1FFF                         l793 1F6B  
                       l796 0003                         _ISR 100C                         _pad 1F6C  
                       fsr0 0004                         indf 0000                ___flmul@aexp 0040  
              ___flmul@bexp 0041                ___flmul@sign 003B                ___flmul@temp 0046  
              ___flmul@prod 0042                        ?_ISR 0070                ___fltol@exp1 0029  
                      l2000 15F0                        l2010 160D                        l2002 15F8  
                      l2100 1757                        l2020 1619                        l2012 1611  
                      l2004 15F9                        l2110 1772                        l2102 175C  
                      l2030 1623                        l2022 161B                        l2014 1613  
                      l2006 15FB                        l3000 1F31                        l2200 07A8  
                      l2112 1777                        l2120 1783                        l2040 162D  
                      l2032 1625                        l2024 161D                        l2016 1615  
                      l2008 1609                        l3010 11F4                        l3002 11CB  
                      l2202 07BE                        l2114 177A                        l2106 1765  
                      l2122 1787                        l2050 166A                        l2034 1627  
                      l2026 161F                        l2018 1617                        l2042 162F  
                      l3020 120D                        l3004 11D0                        l2300 05FA  
                      l2204 07DA                        l2220 1162                        l2212 1124  
                      l2140 17CF                        l2132 179A                        l2124 1788  
                      l2116 177C                        l2108 176E                        l2052 166C  
                      l2060 167E                        l2044 1630                        l2036 1629  
                      l2028 1621                        l3030 1236                        l3022 1214  
                      l3014 11FD                        l3006 11D4                        l2310 0611  
                      l2302 05FC                        l2206 07F4                        l2222 1186  
                      l2214 113A                        l2150 17EA                        l2134 179F  
                      l2142 17D3                        l2126 178C                        l2118 1781  
                      l2070 16AF                        l2062 168A                        l2054 1670  
                      l2046 1647                        l2038 162B                        l3040 126F  
                      l3032 1241                        l3024 1218                        l3016 1200  
                      l3008 11E4                        l2400 073D                        l2320 0625  
                      l2312 0612                        l2304 0604                        l2208 07F6  
                      l2224 118A                        l2216 1156                        l2232 1DAE  
                      l2160 17FA                        l2152 17EB                        l2144 17D8  
                      l2136 17AD                        l2128 1792                        l2080 16C4  
                      l2072 16B3                        l2064 168F                        l2056 1671  
                      l2048 1663                        l2240 0801                        l3042 1274  
                      l3034 1245                        l3026 1226                        l3018 1204  
                      l2410 0786                        l2402 0756                        l2314 0617  
                      l2322 0627                        l2306 0609                        l2226 11C4  
                      l2218 115E                        l2170 1ED5                        l2234 1DB8  
                      l2162 17FE                        l2154 17EF                        l2146 17DD  
                      l2138 17B1                        l2090 1727                        l2082 16C5  
                      l2074 16B7                        l2058 167A                        l2250 0829  
                      l2242 080C                        l3044 1278                        l3036 124F  
                      l3028 122F                        l2420 079D                        l2412 078A  
                      l2404 075C                        l2340 0670                        l2324 0637  
                      l2332 0650                        l2316 061C                        l2308 060D  
                      l2228 11C6                        l2172 1EE4                        l2164 1EC8  
                      l2500 0E4C                        l2236 1DBA                        l2156 17F1  
                      l2148 17E5                        l2092 172B                        l2084 16CE  
                      l2076 16BE                        l2068 1698                        l2252 0831  
                      l2180 1F48                        l3060 1287                        l3046 1279  
                      l3038 1259                        l2422 07A1                        l2414 0792  
                      l2406 0769                        l2350 068F                        l2342 0678  
                      l2334 0655                        l2326 0643                        l2318 0624  
                      l2174 1EE9                        l2166 1ECA                        l2510 0EF3  
                      l2502 0E69                        l2430 0CBB                        l2158 17F5  
                      l2094 172D                        l2078 16C0                        l2086 16D3  
                      l2262 083F                        l2254 0833                        l2246 0815  
                      l2182 1F56                        l2190 1E7E                        l3070 129C  
                      l3062 1287                        l2416 0797                        l2408 0777  
                      l2360 06C1                        l2352 06A1                        l2344 0680  
                      l2328 0647                        l2168 1ED1                        l2520 0F3F  
                      l2512 0F1B                        l2504 0E94                        l2440 0CCE  
                      l2432 0CC0                        l2096 1732                        l2088 16E9  
                      l2280 1E56                        l2272 0858                        l2264 0848  
                      l2256 0837                        l2248 0828                        l2600 10FD  
                      l2184 1F5E                        l2192 1E8B                        l3080 1339  
                      l3072 12AA                        l3064 1287                        l2418 079B  
                      l2370 06E2                        l2362 06C2                        l2354 06A5  
                      l2346 0688                        l2338 065E                        l2290 05E6  
                      l2530 0F54                        l2522 0F40                        l2514 0F24  
                      l2506 0EA2                        l2450 0CEA                        l2442 0CD3  
                      l2434 0CC4                        l2098 1741                        l2274 0868  
                      l2266 0851                        l2178 1F45                        l2610 1DD7  
                      l2194 1E92                        l2186 1E76                        l3074 12B1  
                      l3066 128B                        l3058 1282                        l2380 06FB  
                      l2372 06E4                        l2364 06D0                        l2356 06A6  
                      l2348 068A                        l2292 05E7                        l2284 05D9  
                      l2540 0F79                        l2532 0F58                        l2524 0F49  
                      l2516 0F32                        l2508 0ECD                        l2460 0CFD  
                      l2452 0CEE                        l2444 0CDB                        l2436 0CC8  
                      l2276 086D                        l2604 111F                        l2620 0879  
                      l2612 1DBB                        l2700 156A                        l2196 1E98  
                      l2188 1E7A                        l3076 12BB                        l3068 1299  
                      l2390 071E                        l2374 06ED                        l2382 0701  
                      l2358 06AF                        l2366 06D4                        l2294 05EC  
                      l2286 05DE                        l2550 0FB7                        l2542 0F87  
                      l2534 0F6C                        l2518 0F3B                        l2526 0F4F  
                      l2470 0D19                        l2462 0D05                        l2454 0CF2  
                      l2446 0CDD                        l2438 0CC9                        l2278 1E52  
                      l2630 091A                        l2622 08A9                        l2614 1DC1  
                      l2702 157A                        l2710 0A2C                        l3078 1317  
                      l2384 0705                        l2376 06F1                        l2368 06DA  
                      l2296 05F1                        l2288 05E2                        l2560 0FE9  
                      l2552 0FC2                        l2544 0F8B                        l2528 0F53  
                      l2480 0D58                        l2464 0D07                        l2456 0CF3  
                      l2448 0CE5                        l2640 09AE                        l2624 08DC  
                      l2616 1DC2                        l2608 1DD5                        l2800 0371  
                      l2720 0A70                        l2712 0A36                        l2704 1587  
                      l2394 0726                        l2386 0706                        l2378 06F2  
                      l2298 05F9                        l2562 0FED                        l2554 0FD1  
                      l2546 0FA4                        l2538 0F74                        l2490 0DDF  
                      l2482 0D74                        l2474 0D22                        l2466 0D0F  
                      l2458 0CF8                        l2642 09D5                        l2634 093D  
                      l2626 08E9                        l2650 1EA0                        l2810 042F  
                      l2802 0374                        l2730 0BB5                        l2722 0AAF  
                      l2714 0A38                        l2706 158F                        l2396 072B  
                      l2388 070A                        l2564 0FEE                        l2556 0FDB  
                      l2548 0FAA                        l2492 0DED                        l2484 0D9E  
                      l2476 0D30                        l2468 0D14                        l2644 09E0  
                      l2636 0966                        l2628 08F0                        l2652 1EA5  
                      l2580 1F8D                        l2572 1F6F                        l2820 0448  
                      l2812 0433                        l2804 03FA                        l2732 0BF4  
                      l2724 0B0F                        l2740 0C94                        l2660 144E  
                      l2900 1398                        l2398 0739                        l2558 0FDD  
                      l2566 0FF3                        l2494 0E0A                        l2486 0DBA  
                      l2478 0D3D                        l2590 10D4                        l2646 0A09  
                      l2638 097F                        l2654 1EAA                        l1950 1FA6  
                      l2582 1F9B                        l2574 1F73                        l2830 0466  
                      l2822 044E                        l2814 0439                        l2806 0424  
                      l2750 002D                        l2742 0C9A                        l2734 0BFA  
                      l2726 0B48                        l2718 0A60                        l2670 14B5  
                      l2662 144F                        l2902 13A1                        l2910 13AB  
                      l2568 0FF7                        l2496 0E18                        l2488 0DD6  
                      l2592 10ED                        l2584 1097                        l2656 1EAE  
                      l1960 1FE6                        l1952 1FAD                        l2576 1F78  
                      l2840 052A                        l2832 046D                        l2824 0454  
                      l2816 043F                        l2808 042A                        l2752 0031  
                      l2760 0047                        l2744 0C9E                        l2728 0BAA  
                      l2680 14CC                        l2672 14B9                        l2664 1457  
                      l2920 13EF                        l2904 13A6                        l2912 13B6  
                      l2498 0E35                        l1970 15B5                        l2594 10F2  
                      l2586 10B7                        l2658 1EB6                        l1954 1FB2  
                      l2578 1F85                        l2850 0561                        l2842 0530  
                      l2834 0473                        l2826 045A                        l2818 0445  
                      l2770 0194                        l2762 0049                        l2754 0039  
                      l2746 0CA3                        l2738 0C5B                        l2690 1519  
                      l2682 14D2                        l2674 14BD                        l2666 147E  
                      l2930 1414                        l2922 13F7                        l2914 13C3  
                      l2906 13A9                        l1980 15C9                        l1972 15B6  
                      l1964 15A8                        l2588 10CE                        l1956 1FB9  
                      l2860 05AD                        l2852 0566                        l2836 0479  
                      l2828 0460                        l2844 0536                        l2780 0264  
                      l2772 01AA                        l2764 0051                        l2756 003B  
                      l2748 0CB1                        l2692 1521                        l2684 14F5  
                      l2676 14C2                        l2668 1482                        l2924 13FD  
                      l2916 13D9                        l2932 141F                        l1990 15DD  
                      l1974 15BB                        l1982 15CB                        l1966 15AD  
                      l2598 10F7                        l1958 1FC8                        l2862 05B9  
                      l2854 0589                        l2846 054C                        l2838 04EB  
                      l2790 0315                        l2782 026A                        l2774 01E9  
                      l2766 005A                        l2758 0041                        l2686 14FC  
                      l2678 14C7                        l2870 103E                        l2942 1E13  
                      ?_pad 002F                        l2960 1DFA                        l2952 1DEF  
                      l1992 15E1                        l1984 15D3                        l1976 15C0  
                      l1968 15B1                        l2864 05BF                        l2856 0593  
                      l2848 055B                        l2792 0354                        l2784 0272  
                      l2776 0220                        l2768 018E                        l2688 150C  
                      l2696 153C                        l2880 1092                        l2872 104D  
                      l2936 1429                        l2944 1E16                        l2970 1E05  
                      l2962 1DFE                        l2954 1DF2                        l1994 15E5  
                      l1986 15D6                        l1978 15C8                        l2858 05A8  
                      l2794 035A                        l2786 02BF                        l2778 022B  
                      l2698 1563                        l2874 1063                        l2890 1367  
                      l2946 1E20                        l2980 1E0C                        l2972 1E08  
                      l2964 1DFF                        l2956 1DF4                        l1996 15E6  
                      l1988 15DC                        l2796 036E                        l2788 030D  
                      l2876 107A                        l2868 103C                        l2892 136B  
                      l2884 134B                        l2948 1E2E                        l2974 1E09  
                      l2966 1E00                        l2958 1DF6                        l1998 15EB  
                      l2798 036F                        l2878 1081                        l2894 1379  
                      l2886 135A                        l2990 1E48                        l2982 1E34  
                      l2976 1E0A                        l2968 1E02                        l2896 137F  
                      l2888 1360                        l2984 1E38                        l2994 1F18  
                      l2978 1E0B                        l2898 1391                        l2986 1E3A  
                      l2996 1F1F                        l2988 1E3C                        l2998 1F2B  
                      STR_1 1825                        STR_2 1810                        STR_3 1837  
                      STR_6 183B                        u3000 1DB8                        u3001 1DB7  
                      u3010 080C                        u3011 080B                        u3100 086D  
                      u3020 0823                        u3101 086C                        u3110 05E6  
                      u3030 0837                        u3111 05E5                        u3031 0836  
                      u3120 05EC                        u2400 15E5                        u3040 083E  
                      u4000 0A09                        u2320 1FAD                        u3121 05EB  
                      u2401 15E4                        u3041 083D                        u3025 081E  
                      u4001 0A08                        u2321 1FAC                        u3130 05F1  
                      u2410 15EB                        u4010 1EC4                        u2330 1FB2  
                      u3131 05F0                        u2411 15EA                        u4011 1EC3  
                      u2331 1FB1                        u3300 0705                        u3220 06A5  
                      u3140 0611                        u2420 15F0                        u3060 0850  
                      u2340 1FC8                        u4020 147E                        u3301 0704  
                      u3221 06A4                        u3205 0691                        u3141 0610  
                      u2421 15EF                        u3061 084F                        u2341 1FC7  
                      u4101 0AD2                        u4021 147D                        u3310 070A  
                      u3150 0617                        u2510 1686                        u2430 1609  
                      u3070 0857                        u2350 1FE6                        u4110 0B0F  
                      u4102 0AD5                        u4030 14C2                        u3311 0709  
                      u3215 069A                        u3151 0616                        u2511 1685  
                      u2431 1608                        u3071 0856                        u3055 0840  
                      u2351 1FE5                        u4111 0B0E                        u4103 0ADC  
                      u4031 14C1                        u3320 071E                        u3240 06C1  
                      u3160 061C                        u3400 0CC8                        u2520 168A  
                      u2440 160D                        u2360 15B5                        u4200 0031  
                      u4120 0B48                        u4104 0ADF                        u4040 14C7  
                      u3321 071D                        u3241 06C0                        u3161 061B  
                      u3401 0CC7                        u2601 1700                        u2521 1689  
                      u2505 1673                        u2441 160C                        u2361 15B4  
                      u4201 0030                        u4121 0B47                        u4113 0B0B  
                      u4105 0AE6                        u4041 14C6                        u3330 0725  
                      u3250 06DA                        u3170 0637                        u3410 0CCE  
                      u2610 1714                        u2602 1701                        u2530 168F  
                      u2450 1647                        u2370 15BB                        u3090 0868  
                      u4210 0041                        u4106 0AE9                        u4050 14F5  
                      u3331 0724                        u3251 06D9                        u3235 06A8  
                      u3171 0636                        u3411 0CCD                        u2611 1715  
                      u2603 1706                        u2531 168E                        u2451 1646  
                      u2371 15BA                        u3091 0867                        u2355 1FE2  
                      u4211 0040                        u4131 0B6D                        u4051 14F4  
                      u3340 072B                        u3260 06E2                        u3180 0655  
                      u3420 0CD3                        u2700 178C                        u2620 1732  
                      u2612 171A                        u2604 1707                        u2460 1652  
                      u2380 15C0                        u4300 0433                        u4220 01AA  
                      u4140 0BAA                        u4132 0B70                        u4060 14FC  
                      u3341 072A                        u3261 06E1                        u3245 06BD  
                      u3181 0654                        u3501 0DAC                        u3421 0CD2  
                      u2701 178B                        u2621 1731                        u2613 171B  
                      u2605 170C                        u2541 16A1                        u2461 1650  
                      u2381 15BF                        u3085 085A                        u4301 0432  
                      u4221 01A9                        u4141 0BA9                        u4133 0B77  
                      u4061 14FB                        u3350 073D                        u3190 068F  
                      u3502 0DB3                        u3430 0CF2                        u2710 1792  
                      u2630 1757                        u2606 170D                        u2550 16B3  
                      u2542 16A8                        u2470 1653                        u2390 15DC  
                      u4310 0466                        u4230 0220                        u4134 0B7A  
                      u4070 1563                        u3351 073C                        u3191 068E  
                      u3511 0DC8                        u3503 0DBA                        u3431 0CF1  
                      u2711 1791                        u2631 1756                        u2551 16B2  
                      u2543 16AF                        u2455 1643                        u2391 15DB  
                      u4311 0465                        u4231 021F                        u4151 0C1D  
                      u4143 0BA6                        u4135 0B81                        u4071 1560  
                      u3360 074C                        u3280 06F1                        u3512 0DCF  
                      u3440 0CF8                        u2800 17EF                        u2720 1799  
                      u2640 175C                        u2560 16B7                        u2480 1663  
                      u4320 054C                        u4240 0264                        u4160 0C5A  
                      u4152 0C20                        u4136 0B84                        u4080 156A  
                      u4400 1379                        u3281 06F0                        u3601 0EE5  
                      u3513 0DD6                        u3441 0CF7                        u2801 17EE  
                      u2721 1798                        u2641 175B                        u2561 16B6  
                      u2481 1662                        u4321 054B                        u4241 0263  
                      u4225 01A6                        u4161 0C59                        u4153 0C27  
                      u4081 1569                        u4401 1378                        u3370 0769  
                      u3610 0F01                        u3602 0EEC                        u3450 0CFD  
                      u2810 17FE                        u2730 179F                        u2570 16C4  
                      u2490 1670                        u4330 055B                        u4250 026A  
                      u4170 0C94                        u4154 0C2A                        u4090 0A5F  
                      u4410 13C2                        u3371 0768                        u3275 06E6  
                      u3603 0EF3                        u3531 0DFC                        u3451 0CFC  
                      u2811 17FD                        u2731 179E                        u2571 16C3  
                      u2491 166F                        u4331 055A                        u4251 0269  
                      u4171 0C93                        u4163 0C56                        u4155 0C31  
                      u4091 0A5E                        u4411 13C1                        u3380 0786  
                      u2900 07BE                        u2820 1ED5                        u3700 0F73  
                      u3532 0E03                        u3460 0D14                        u2740 17B1  
                      u2660 1772                        u4340 0599                        u4260 030D  
                      u4180 0C9E                        u4156 0C34                        u4420 1E2E  
                      u3381 0785                        u3365 0747                        u2901 07BD  
                      u2821 1ED4                        u3701 0F72                        u3621 0F0D  
                      u3541 0E27                        u3533 0E0A                        u3525 0DD8  
                      u3461 0D13                        u2741 17B0                        u2661 1771  
                      u4341 0597                        u4325 0548                        u4261 030C  
                      u4181 0C9D                        u4421 1E2D                        u4430 1F1F  
                      u4510 1235                        u3390 079B                        u2910 07DA  
                      u3710 0F79                        u3622 0F14                        u3542 0E2E  
                      u3470 0D19                        u2750 17C0                        u2670 1777  
                      u2590 16E9                        u4350 059A                        u4270 035A  
                      u4190 002D                        u4431 1F1E                        u4511 1234  
                      u3391 079A                        u3375 0765                        u3295 06F4  
                      u2911 07D9                        u3711 0F78                        u3623 0F1B  
                      u3615 0EFC                        u3543 0E35                        u3471 0D18  
                      u2671 1776                        u2655 1767                        u2591 16E8  
                      u4335 0557                        u4271 0359                        u4191 0CB8  
                      u4440 1F41                        u2920 07F4                        u2840 1EE9  
                      u3720 0F8B                        u2760 17CF                        u2680 1781  
                      u3800 10D4                        u4360 05AD                        u4280 03FA  
                      u4441 1F40                        u4505 1227                        u3385 0782  
                      u2921 07F3                        u2841 1EE8                        u3721 0F8A  
                      u3561 0E5B                        u3481 0D66                        u2761 17CE  
                      u2681 1780                        u2593 16E5                        u2585 16C7  
                      u3801 10D3                        u4361 05AC                        u4281 03F9  
                      u4530 1245                        u4450 11D0                        u2930 113A  
                      u3730 0F9A                        u3650 0F3F                        u3562 0E62  
                      u3482 0D6D                        u2770 17D8                        u2690 1787  
                      u3810 10E2                        u2850 1F6B                        u4290 042F  
                      u4370 104D                        u4610 12B1                        u4531 1244  
                      u4451 11CF                        u2931 1139                        u2835 1EDC  
                      u3651 0F3E                        u3635 0F1D                        u3571 0E86  
                      u3563 0E69                        u3555 0E37                        u3491 0D82  
                      u3483 0D74                        u2771 17D7                        u2755 17BB  
                      u2691 1786                        u2851 1F6A                        u4291 042E  
                      u4371 104C                        u4611 12B0                        u4540 124B  
                      u4460 11D4                        u2940 1156                        u3740 0FB7  
                      u3572 0E8D                        u3492 0D89                        u2780 17DD  
                      u3820 10ED                        u3900 08E9                        u2860 1E7E  
                      u4380 1092                        u4541 124A                        u4525 123A  
                      u4461 11D3                        u2925 07F0                        u2941 1155  
                      u3741 0FB6                        u3645 0F34                        u3581 0EB1  
                      u3573 0E94                        u3493 0D90                        u2781 17DC  
                      u3821 10EC                        u3901 08E8                        u4285 03F6  
                      u2861 1E7D                        u4381 1091                        u4550 124F  
                      u4470 11F4                        u2950 1162                        u3750 0FD1  
                      u3670 0F53                        u3590 0ED9                        u3582 0EB8  
                      u2790 17EA                        u3830 10FD                        u3910 08F0  
                      u4390 135A                        u4551 124E                        u4471 11F3  
                      u2951 1161                        u3751 0FD0                        u3735 0F95  
                      u3671 0F52                        u3583 0EBF                        u2791 17E9  
                      u3831 10FC                        u3815 10DD                        u3911 08EF  
                      u4391 1359                        u4560 1264                        u3760 0FED  
                      u3680 0F58                        u3840 110B                        u3920 0902  
                      u2961 1171                        u3761 0FEC                        u3745 0FB3  
                      u3681 0F57                        u3665 0F42                        u3905 08E5  
                      u4570 1274                        u4490 1213                        u2970 118A  
                      u2962 1172                        u3690 0F6C                        u3850 1117  
                      u3930 093C                        u3770 1F73                        u2890 1E98  
                      u4571 1273                        u4491 1212                        u2971 1189  
                      u2963 1177                        u3755 0FCD                        u3691 0F6B  
                      u3595 0ED4                        u3851 1115                        u3931 093B  
                      u3771 1F72                        u2891 1E97                        u2875 1E85  
                      u4580 1278                        u2964 1178                        u3860 1118  
                      u3940 095B                        u3780 1F9B                        u4581 1277  
                      u4565 125F                        u4485 1205                        u2981 1199  
                      u2965 117D                        u3845 1106                        u3925 08FD  
                      u3781 1F9A                        u2885 1E8C                        u4637 1293  
                      u2990 11C4                        u2982 119A                        u2966 117E  
                      u3790 10C5                        u3950 0966                        u3870 1DEE  
                      i1l63 1F17                        u2991 11C3                        u2983 119F  
                      u3951 0965                        u3871 1DED                        u4647 12A4  
                      u2984 11A0                        u3880 1DC1                        u2985 11A5  
                      u3961 0971                        u3945 0956                        u3881 1DC0  
                      u3785 1F97                        u2986 11A6                        u3970 09CA  
                      u3962 0978                        u3890 08C5                        i1l59 1EEF  
                      u2995 11C0                        u3795 10C0                        u3963 097F  
                      u3980 09D5                        i1l69 102E                        u3981 09D4  
                      u3990 09FE                        u3975 09C5                        u3895 08C0  
                      u3995 09F9                        _dbuf 0110                        _labs 1DBB  
                      _main 1282                        _prec 007B                        pad@i 0033  
                      pad@p 0030                        btemp 007E               ___fpclassifyf 1097  
                      start 0010             ___fldiv@new_exp 005A                 main@voltage 01C1  
                     ??_ISR 0072                       ??_pad 0032               ___fltol@sign1 0028  
                     ?_labs 0020             __end_of___fladd 1800                       ?_main 0070  
           __end_of___fldiv 07A8             __end_of___flneg 1DBB             __end_of___flmul 1000  
           __end_of___flsub 1E76             __end_of___fltol 0879                ?_init_config 0070  
              vfpfcnvrt@fmt 00DC                       _SPBRG 0099                       _PORTD 0008  
                     _TRISA 0085                       _TRISB 0086                       _TRISD 0088  
                     _TXREG 0019                       _flags 007D         read_prec_or_width@c 0028  
       read_prec_or_width@n 0029                       _fputc 1FA6                       _fputs 1F42  
                     labs@a 0020                       pad@fp 0035                       _width 0079  
                     _putch 0003                       pclath 000A                       status 0003  
                     wtemp0 007E             __end_of_sprintf 1E52              ?___fpclassifyf 0020  
             main@adc_value 01C5             __initialization 0013                __end_of_labs 1DD2  
              __end_of_main 1348                      ??_labs 0024                      ??_main 019E  
     i1UART_send_string@str 0070  __end_of_read_prec_or_width 1097  __end_ofi1_UART_send_string 1F18  
                    _ADCON0 001F                      _ADCON1 009F                      ?_fputc 0020  
                    ?_fputs 0028                      _ADRESH 001E                      _ADRESL 009E  
                    ?_putch 0070                      i1l3050 1EEE                      i1l3052 1EF5  
                    i1l3054 1F01                      i1l3056 1F07                      i1l3090 1021  
                    i1l3082 100C                      i1l3092 1024                      i1l3084 1010  
                    i1l3094 102D                      i1l3086 1013                      i1l3088 1014  
                    u460_20 1F17                      u460_21 1F16                      u462_20 1010  
                    u462_21 100F                      u465_27 101A                      u459_20 1EF5  
                    u459_21 1EF4            __end_of___xxtofl 1282                vfprintf@cfmt 00EA  
                    ___flge 1124                      ___fleq 07A8                   ??___fladd 0028  
                    ___wmul 1E76                   ??___fldiv 0050                   ??___flneg 0024  
                 ??___flmul 0036                   ??___flsub 0050                   ??___fltol 0024  
                    _efgtoa 144B                      _floorf 0879                      _memcpy 1E9D  
      read_prec_or_width@ap 0026                      pad@buf 002F                      _strcpy 1DD2  
                    fputc@c 0020                      fputs@c 002B                      fputs@i 002C  
                    fputs@s 002E             ___fpclassifyf@e 002A             ___fpclassifyf@u 002C  
           ___fpclassifyf@x 0020                      saved_w 007E                      putch@c 0070  
          __end_of_vfprintf 1E31                   ??_sprintf 0190                  ___flge@ff1 0048  
                ___flge@ff2 004C             ??___fpclassifyf 0024                ___xxtofl@arg 002A  
              ___xxtofl@exp 0029                ___xxtofl@val 0020                  ___fleq@ff1 0020  
                ___fleq@ff2 0024     __end_of__initialization 0029                  ___flneg@f1 0020  
                ___fltol@f1 0020              __pcstackCOMMON 0070            _UART_send_string 1F18  
             __end_of_fputc 2000               __end_of_fputs 1F6C               __end_of_putch 0004  
            _OPTION_REGbits 0081                     ??_fputc 0023                     ??_fputs 0029  
                   ??_putch 0020                  __pbssBANK2 0110                  __pbssBANK3 01C7  
         __end_of__Umul8_16 1EEE                  _efgtoa$861 00B5                  __pmaintext 1282  
                   ?___flge 0048                     ?___fleq 0020                     ?___wmul 0020  
                __pintentry 0004                     ?_efgtoa 00AA                     ?_floorf 0062  
                   ?_memcpy 0020                     ?_strcpy 0020                   ?___xxtofl 0020  
                __stringtab 1800                     ___fladd 15A8                     ___fldiv 05D9  
                   ___flneg 1DAE                     ___flmul 0CBB                     ___flsub 1E52  
                   ___fltol 0801                   ?_vfprintf 00E7                     __ptext1 1E31  
                   __ptext2 1E10                     __ptext3 1348                     __ptext4 1039  
                   __ptext5 1E76                     __ptext6 144B                     __ptext7 1DD2  
                   __ptext8 1F6C                     __ptext9 1F42       read_prec_or_width@fmt 002B  
                ??___xxtofl 0024                     efgtoa@c 00AE                     efgtoa@d 00BA  
                   efgtoa@e 00BF                     efgtoa@f 00AA                     efgtoa@g 00D4  
                   efgtoa@h 00C9                     efgtoa@i 00C7                     efgtoa@l 00CD  
                   efgtoa@m 00BC                     efgtoa@n 00D2                     efgtoa@p 00B1  
                   efgtoa@t 00B3                     efgtoa@u 00D8                     efgtoa@w 00C1  
                   _sprintf 1E31                     clrloop0 07F9        end_of_initialization 0029  
                   floorf@e 00A4                     floorf@m 00A0                     floorf@u 00A6  
                   floorf@x 0062                     memcpy@d 0025                     memcpy@n 0021  
                   memcpy@s 0026                     fputc@fp 0022                     fputs@fp 0028  
        _read_prec_or_width 1039          i1_UART_send_string 1EEE           __end_of_vfpfcnvrt 144B  
                efgtoa@mode 00B8                  efgtoa@sign 00D1                   _RCSTAbits 0018  
       ?_read_prec_or_width 0026                     psplit$0 12002C                     psplit$1 2C002D  
          vfpfcnvrt@convarg 00E0         ?i1_UART_send_string 0070                  ??_vfprintf 0070  
                   strcpy@d 0021                   _PORTDbits 0008                 ___fladd@grs 0033  
             ___xxtofl@sign 0028        ??_read_prec_or_width 0028                 ___fldiv@grs 005C  
               ___fldiv@rem 0055        ??i1_UART_send_string 0072    __end_of_UART_send_string 1F42  
               ___flmul@grs 003C                  main@buffer 01A1                   _TXSTAbits 0098  
            __end_of___flge 11C8              __end_of___fleq 07F8                 vfpfcnvrt@ap 00DD  
               vfpfcnvrt@cp 00E6                 vfpfcnvrt@fp 00E4              __end_of___wmul 1E9D  
            __end_of_efgtoa 05D9              __end_of_floorf 0A2C              __end_of_memcpy 1EC5  
                floorf@F521 01C7              __end_of_strcpy 1DEF         start_initialization 0013  
               __end_of_ISR 1039                 __end_of_pad 1FA6           pnum$text6_split_1 002C  
         pnum$text6_split_2 002D       __end_of___fpclassifyf 1124                 vfprintf@fmt 00E7  
                  ??___flge 0050                    ??___fleq 0028                    ??___wmul 0024  
                  ??_efgtoa 006C                   __Umul8_16 1EC5                    ??_floorf 0066  
                  ??_memcpy 0023                    ??_strcpy 0021               ??_init_config 0020  
                 ___fladd@a 0024                   ___fladd@b 0020                   ___fldiv@a 0048  
                 ___fldiv@b 004C                   ___flmul@a 0032                   ___flmul@b 002E  
               __pbssCOMMON 0079                   ___flsub@a 0048                   ___flsub@b 004C  
                 ___latbits 0002               __pcstackBANK0 0020               __pcstackBANK1 00A0  
             __pcstackBANK3 0190                    ?___fladd 0020                    ?___fldiv 0048  
                  ?___flneg 0020                    ?___flmul 002E                    ?___flsub 0048  
                  ?___fltol 0020                  ?__Umul8_16 0020                   __pstrings 1800  
       UART_send_string@str 0020                    ?_sprintf 00EB         __end_of_init_config 1E10  
         interrupt_function 0004              ___wmul@product 0024                   clear_ram0 07F8  
                 _vfpfcnvrt 1348                  _ADCON0bits 001F                 __stringbase 180F  
         ___wmul@multiplier 0020                  vfpfcnvrt@c 00E5           ?_UART_send_string 0020  
        ??_UART_send_string 0022                   memcpy@tmp 0023                  vfprintf@ap 00E8  
                vfprintf@fp 00E9                 ??__Umul8_16 0022                  ?_vfpfcnvrt 00DC  
        __end_of__stringtab 1810          ___fpclassifyf@F465 01CB                 _init_config 1DEF  
                sprintf@fmt 00EB                    ___xxtofl 11C8                    __ptext10 1FA6  
                  __ptext11 0003                    __ptext20 0CBB                    __ptext12 1E9D  
                  __ptext21 1EC5                    __ptext13 1DBB                    __ptext22 1124  
                  __ptext14 0879                    __ptext23 07A8                    __ptext15 1097  
                  __ptext24 05D9                    __ptext16 0801                    __ptext25 1DEF  
                  __ptext17 1E52                    __ptext26 11C8                    __ptext18 15A8  
                  __ptext27 1F18                    __ptext19 1DAE                    __ptext28 100C  
                  __ptext29 1EEE                  strcpy@dest 0022                   pnum$text6 0012  
                  efgtoa@fp 00BE                    efgtoa@ne 00AF                    efgtoa@pp 00B7  
                  efgtoa@ou 00C3                    _vfprintf 1E10                  _INTCONbits 000B  
                  memcpy@d1 0024                    memcpy@s1 0020                    intlevel1 0000  
                 sprintf@ap 0192                   strcpy@src 0020                   stringcode 180A  
               efgtoa@nmode 00B9                 ??_vfpfcnvrt 00DE      __Umul8_16@multiplicand 0020  
                  sprintf@f 0193                    sprintf@s 0191                    stringdir 180A  
                  stringtab 1800               ___fladd@signs 0030                ___fladd@aexp 0031  
              ___fladd@bexp 0032        __Umul8_16@multiplier 0028           __Umul8_16@product 0024  
